
razercontrol.ko:     file format elf64-x86-64


Disassembly of section .text:

0000000000000000 <razer_laptop_remove>:
   0:	e8 00 00 00 00       	callq  5 <razer_laptop_remove+0x5>
   5:	41 56                	push   %r14
   7:	48 c7 c6 00 00 00 00 	mov    $0x0,%rsi
   e:	41 55                	push   %r13
  10:	41 54                	push   %r12
  12:	4c 8d a7 d0 18 00 00 	lea    0x18d0(%rdi),%r12
  19:	55                   	push   %rbp
  1a:	48 89 fd             	mov    %rdi,%rbp
  1d:	4c 8b af 10 19 00 00 	mov    0x1910(%rdi),%r13
  24:	4c 8b b7 48 19 00 00 	mov    0x1948(%rdi),%r14
  2b:	4c 89 e7             	mov    %r12,%rdi
  2e:	e8 00 00 00 00       	callq  33 <razer_laptop_remove+0x33>
  33:	4c 89 e7             	mov    %r12,%rdi
  36:	48 c7 c6 00 00 00 00 	mov    $0x0,%rsi
  3d:	e8 00 00 00 00       	callq  42 <razer_laptop_remove+0x42>
  42:	4c 89 e7             	mov    %r12,%rdi
  45:	48 c7 c6 00 00 00 00 	mov    $0x0,%rsi
  4c:	e8 00 00 00 00       	callq  51 <razer_laptop_remove+0x51>
  51:	48 c7 c6 00 00 00 00 	mov    $0x0,%rsi
  58:	4c 89 e7             	mov    %r12,%rdi
  5b:	e8 00 00 00 00       	callq  60 <razer_laptop_remove+0x60>
  60:	48 89 ef             	mov    %rbp,%rdi
  63:	e8 00 00 00 00       	callq  68 <razer_laptop_remove+0x68>
  68:	4c 89 f7             	mov    %r14,%rdi
  6b:	e8 00 00 00 00       	callq  70 <razer_laptop_remove+0x70>
  70:	4c 89 ef             	mov    %r13,%rdi
  73:	5d                   	pop    %rbp
  74:	48 c7 c6 00 00 00 00 	mov    $0x0,%rsi
  7b:	41 5c                	pop    %r12
  7d:	41 5d                	pop    %r13
  7f:	41 5e                	pop    %r14
  81:	e9 00 00 00 00       	jmpq   86 <razer_laptop_remove+0x86>
  86:	66 2e 0f 1f 84 00 00 	nopw   %cs:0x0(%rax,%rax,1)
  8d:	00 00 00 

0000000000000090 <rgb_row_store>:
  90:	e8 00 00 00 00       	callq  95 <rgb_row_store+0x5>
  95:	41 54                	push   %r12
  97:	55                   	push   %rbp
  98:	53                   	push   %rbx
  99:	48 8b 6f 78          	mov    0x78(%rdi),%rbp
  9d:	48 83 f9 3d          	cmp    $0x3d,%rcx
  a1:	0f 85 00 00 00 00    	jne    a7 <rgb_row_store+0x17>
  a7:	4c 8d 65 10          	lea    0x10(%rbp),%r12
  ab:	48 89 d3             	mov    %rdx,%rbx
  ae:	4c 89 e7             	mov    %r12,%rdi
  b1:	e8 00 00 00 00       	callq  b6 <rgb_row_store+0x26>
  b6:	48 0f be 53 01       	movsbq 0x1(%rbx),%rdx
  bb:	0f be 33             	movsbl (%rbx),%esi
  be:	48 8b 7d 08          	mov    0x8(%rbp),%rdi
  c2:	e8 00 00 00 00       	callq  c7 <rgb_row_store+0x37>
  c7:	48 8b 7d 08          	mov    0x8(%rbp),%rdi
  cb:	31 f6                	xor    %esi,%esi
  cd:	e8 00 00 00 00       	callq  d2 <rgb_row_store+0x42>
  d2:	4c 89 e7             	mov    %r12,%rdi
  d5:	e8 00 00 00 00       	callq  da <rgb_row_store+0x4a>
  da:	b8 3d 00 00 00       	mov    $0x3d,%eax
  df:	5b                   	pop    %rbx
  e0:	5d                   	pop    %rbp
  e1:	41 5c                	pop    %r12
  e3:	c3                   	retq   
  e4:	66 66 2e 0f 1f 84 00 	data16 nopw %cs:0x0(%rax,%rax,1)
  eb:	00 00 00 00 
  ef:	90                   	nop

00000000000000f0 <rgb_map_store>:
  f0:	e8 00 00 00 00       	callq  f5 <rgb_map_store+0x5>
  f5:	41 56                	push   %r14
  f7:	49 89 f8             	mov    %rdi,%r8
  fa:	41 55                	push   %r13
  fc:	41 54                	push   %r12
  fe:	55                   	push   %rbp
  ff:	53                   	push   %rbx
 100:	48 89 d3             	mov    %rdx,%rbx
 103:	48 89 ca             	mov    %rcx,%rdx
 106:	48 83 ec 48          	sub    $0x48,%rsp
 10a:	65 48 8b 04 25 28 00 	mov    %gs:0x28,%rax
 111:	00 00 
 113:	48 89 44 24 40       	mov    %rax,0x40(%rsp)
 118:	31 c0                	xor    %eax,%eax
 11a:	48 8d 6c 24 04       	lea    0x4(%rsp),%rbp
 11f:	48 8d 7c 24 08       	lea    0x8(%rsp),%rdi
 124:	48 c7 44 24 04 00 00 	movq   $0x0,0x4(%rsp)
 12b:	00 00 
 12d:	48 c7 44 24 38 00 00 	movq   $0x0,0x38(%rsp)
 134:	00 00 
 136:	48 89 e9             	mov    %rbp,%rcx
 139:	48 29 f9             	sub    %rdi,%rcx
 13c:	83 c1 3c             	add    $0x3c,%ecx
 13f:	c1 e9 03             	shr    $0x3,%ecx
 142:	f3 48 ab             	rep stos %rax,%es:(%rdi)
 145:	4d 8b 70 78          	mov    0x78(%r8),%r14
 149:	48 81 fa 68 01 00 00 	cmp    $0x168,%rdx
 150:	0f 85 00 00 00 00    	jne    156 <rgb_map_store+0x66>
 156:	4d 8d 6e 10          	lea    0x10(%r14),%r13
 15a:	45 31 e4             	xor    %r12d,%r12d
 15d:	4c 89 ef             	mov    %r13,%rdi
 160:	e8 00 00 00 00       	callq  165 <rgb_map_store+0x75>
 165:	48 8b 03             	mov    (%rbx),%rax
 168:	44 89 e6             	mov    %r12d,%esi
 16b:	48 89 ea             	mov    %rbp,%rdx
 16e:	41 83 c4 01          	add    $0x1,%r12d
 172:	48 83 c3 3c          	add    $0x3c,%rbx
 176:	48 89 45 00          	mov    %rax,0x0(%rbp)
 17a:	48 8b 43 cc          	mov    -0x34(%rbx),%rax
 17e:	48 89 45 08          	mov    %rax,0x8(%rbp)
 182:	48 8b 43 d4          	mov    -0x2c(%rbx),%rax
 186:	48 89 45 10          	mov    %rax,0x10(%rbp)
 18a:	48 8b 43 dc          	mov    -0x24(%rbx),%rax
 18e:	48 89 45 18          	mov    %rax,0x18(%rbp)
 192:	48 8b 43 e4          	mov    -0x1c(%rbx),%rax
 196:	48 89 45 20          	mov    %rax,0x20(%rbp)
 19a:	48 8b 43 ec          	mov    -0x14(%rbx),%rax
 19e:	48 89 45 28          	mov    %rax,0x28(%rbp)
 1a2:	48 8b 43 f4          	mov    -0xc(%rbx),%rax
 1a6:	48 89 45 30          	mov    %rax,0x30(%rbp)
 1aa:	8b 43 fc             	mov    -0x4(%rbx),%eax
 1ad:	89 45 38             	mov    %eax,0x38(%rbp)
 1b0:	49 8b 7e 08          	mov    0x8(%r14),%rdi
 1b4:	e8 00 00 00 00       	callq  1b9 <rgb_map_store+0xc9>
 1b9:	41 83 fc 06          	cmp    $0x6,%r12d
 1bd:	75 a6                	jne    165 <rgb_map_store+0x75>
 1bf:	49 8b 7e 08          	mov    0x8(%r14),%rdi
 1c3:	31 f6                	xor    %esi,%esi
 1c5:	e8 00 00 00 00       	callq  1ca <rgb_map_store+0xda>
 1ca:	4c 89 ef             	mov    %r13,%rdi
 1cd:	e8 00 00 00 00       	callq  1d2 <rgb_map_store+0xe2>
 1d2:	b8 68 01 00 00       	mov    $0x168,%eax
 1d7:	48 8b 74 24 40       	mov    0x40(%rsp),%rsi
 1dc:	65 48 33 34 25 28 00 	xor    %gs:0x28,%rsi
 1e3:	00 00 
 1e5:	75 0d                	jne    1f4 <rgb_map_store+0x104>
 1e7:	48 83 c4 48          	add    $0x48,%rsp
 1eb:	5b                   	pop    %rbx
 1ec:	5d                   	pop    %rbp
 1ed:	41 5c                	pop    %r12
 1ef:	41 5d                	pop    %r13
 1f1:	41 5e                	pop    %r14
 1f3:	c3                   	retq   
 1f4:	e8 00 00 00 00       	callq  1f9 <rgb_map_store+0x109>
 1f9:	0f 1f 80 00 00 00 00 	nopl   0x0(%rax)

0000000000000200 <power_mode_store>:
 200:	e8 00 00 00 00       	callq  205 <power_mode_store+0x5>
 205:	41 57                	push   %r15
 207:	41 56                	push   %r14
 209:	41 55                	push   %r13
 20b:	49 89 d5             	mov    %rdx,%r13
 20e:	41 54                	push   %r12
 210:	55                   	push   %rbp
 211:	48 89 fd             	mov    %rdi,%rbp
 214:	53                   	push   %rbx
 215:	48 89 cb             	mov    %rcx,%rbx
 218:	48 83 ec 70          	sub    $0x70,%rsp
 21c:	65 48 8b 04 25 28 00 	mov    %gs:0x28,%rax
 223:	00 00 
 225:	48 89 44 24 68       	mov    %rax,0x68(%rsp)
 22a:	31 c0                	xor    %eax,%eax
 22c:	4c 8d 64 24 0e       	lea    0xe(%rsp),%r12
 231:	48 8d 7c 24 10       	lea    0x10(%rsp),%rdi
 236:	48 c7 04 24 00 00 00 	movq   $0x0,(%rsp)
 23d:	00 
 23e:	48 c7 44 24 0e 00 00 	movq   $0x0,0xe(%rsp)
 245:	00 00 
 247:	4c 89 e1             	mov    %r12,%rcx
 24a:	48 c7 44 24 60 00 00 	movq   $0x0,0x60(%rsp)
 251:	00 00 
 253:	48 29 f9             	sub    %rdi,%rcx
 256:	83 c1 5a             	add    $0x5a,%ecx
 259:	c1 e9 03             	shr    $0x3,%ecx
 25c:	f3 48 ab             	rep stos %rax,%es:(%rdi)
 25f:	4c 8b 75 78          	mov    0x78(%rbp),%r14
 263:	4d 8d 7e 10          	lea    0x10(%r14),%r15
 267:	4c 89 ff             	mov    %r15,%rdi
 26a:	e8 00 00 00 00       	callq  26f <power_mode_store+0x6f>
 26f:	be 0a 00 00 00       	mov    $0xa,%esi
 274:	4c 89 ef             	mov    %r13,%rdi
 277:	48 89 e2             	mov    %rsp,%rdx
 27a:	e8 00 00 00 00       	callq  27f <power_mode_store+0x7f>
 27f:	85 c0                	test   %eax,%eax
 281:	0f 85 00 00 00 00    	jne    287 <power_mode_store+0x87>
 287:	48 8b 04 24          	mov    (%rsp),%rax
 28b:	48 83 f8 02          	cmp    $0x2,%rax
 28f:	77 29                	ja     2ba <power_mode_store+0xba>
 291:	48 85 c0             	test   %rax,%rax
 294:	0f 84 00 00 00 00    	je     29a <power_mode_store+0x9a>
 29a:	48 83 f8 02          	cmp    $0x2,%rax
 29e:	0f 85 00 00 00 00    	jne    2a4 <power_mode_store+0xa4>
 2a4:	41 8b 3e             	mov    (%r14),%edi
 2a7:	e8 00 00 00 00       	callq  2ac <power_mode_store+0xac>
 2ac:	83 f8 01             	cmp    $0x1,%eax
 2af:	0f 85 00 00 00 00    	jne    2b5 <power_mode_store+0xb5>
 2b5:	e9 00 00 00 00       	jmpq   2ba <power_mode_store+0xba>
 2ba:	49 c7 c5 ea ff ff ff 	mov    $0xffffffffffffffea,%r13
 2c1:	4c 89 ff             	mov    %r15,%rdi
 2c4:	e8 00 00 00 00       	callq  2c9 <power_mode_store+0xc9>
 2c9:	48 8b 44 24 68       	mov    0x68(%rsp),%rax
 2ce:	65 48 33 04 25 28 00 	xor    %gs:0x28,%rax
 2d5:	00 00 
 2d7:	75 12                	jne    2eb <power_mode_store+0xeb>
 2d9:	48 83 c4 70          	add    $0x70,%rsp
 2dd:	4c 89 e8             	mov    %r13,%rax
 2e0:	5b                   	pop    %rbx
 2e1:	5d                   	pop    %rbp
 2e2:	41 5c                	pop    %r12
 2e4:	41 5d                	pop    %r13
 2e6:	41 5e                	pop    %r14
 2e8:	41 5f                	pop    %r15
 2ea:	c3                   	retq   
 2eb:	e8 00 00 00 00       	callq  2f0 <fan_rpm_store>

00000000000002f0 <fan_rpm_store>:
 2f0:	e8 00 00 00 00       	callq  2f5 <fan_rpm_store+0x5>
 2f5:	41 57                	push   %r15
 2f7:	49 89 d7             	mov    %rdx,%r15
 2fa:	41 56                	push   %r14
 2fc:	41 55                	push   %r13
 2fe:	49 89 cd             	mov    %rcx,%r13
 301:	b9 0b 00 00 00       	mov    $0xb,%ecx
 306:	41 54                	push   %r12
 308:	49 89 fc             	mov    %rdi,%r12
 30b:	55                   	push   %rbp
 30c:	53                   	push   %rbx
 30d:	48 83 ec 78          	sub    $0x78,%rsp
 311:	65 48 8b 04 25 28 00 	mov    %gs:0x28,%rax
 318:	00 00 
 31a:	48 89 44 24 70       	mov    %rax,0x70(%rsp)
 31f:	31 c0                	xor    %eax,%eax
 321:	48 8d 7c 24 18       	lea    0x18(%rsp),%rdi
 326:	48 c7 44 24 08 00 00 	movq   $0x0,0x8(%rsp)
 32d:	00 00 
 32f:	48 c7 44 24 16 00 00 	movq   $0x0,0x16(%rsp)
 336:	00 00 
 338:	48 c7 44 24 68 00 00 	movq   $0x0,0x68(%rsp)
 33f:	00 00 
 341:	f3 48 ab             	rep stos %rax,%es:(%rdi)
 344:	49 8b 5c 24 78       	mov    0x78(%r12),%rbx
 349:	4c 8d 73 10          	lea    0x10(%rbx),%r14
 34d:	4c 89 f7             	mov    %r14,%rdi
 350:	e8 00 00 00 00       	callq  355 <fan_rpm_store+0x65>
 355:	31 c0                	xor    %eax,%eax
 357:	be 0a 00 00 00       	mov    $0xa,%esi
 35c:	48 8d 6c 24 16       	lea    0x16(%rsp),%rbp
 361:	48 8d 7c 24 18       	lea    0x18(%rsp),%rdi
 366:	48 c7 44 24 16 00 00 	movq   $0x0,0x16(%rsp)
 36d:	00 00 
 36f:	48 89 e9             	mov    %rbp,%rcx
 372:	48 8d 54 24 08       	lea    0x8(%rsp),%rdx
 377:	48 c7 44 24 68 00 00 	movq   $0x0,0x68(%rsp)
 37e:	00 00 
 380:	48 29 f9             	sub    %rdi,%rcx
 383:	83 c1 5a             	add    $0x5a,%ecx
 386:	c1 e9 03             	shr    $0x3,%ecx
 389:	f3 48 ab             	rep stos %rax,%es:(%rdi)
 38c:	4c 89 ff             	mov    %r15,%rdi
 38f:	e8 00 00 00 00       	callq  394 <fan_rpm_store+0xa4>
 394:	85 c0                	test   %eax,%eax
 396:	0f 85 00 00 00 00    	jne    39c <fan_rpm_store+0xac>
 39c:	48 8b 7c 24 08       	mov    0x8(%rsp),%rdi
 3a1:	48 85 ff             	test   %rdi,%rdi
 3a4:	0f 84 00 00 00 00    	je     3aa <fan_rpm_store+0xba>
 3aa:	8b 33                	mov    (%rbx),%esi
 3ac:	e8 00 00 00 00       	callq  3b1 <fan_rpm_store+0xc1>
 3b1:	48 c7 c6 00 00 00 00 	mov    $0x0,%rsi
 3b8:	4c 89 e7             	mov    %r12,%rdi
 3bb:	41 89 c7             	mov    %eax,%r15d
 3be:	0f b6 c0             	movzbl %al,%eax
 3c1:	6b c0 64             	imul   $0x64,%eax,%eax
 3c4:	89 c2                	mov    %eax,%edx
 3c6:	89 44 24 04          	mov    %eax,0x4(%rsp)
 3ca:	e8 00 00 00 00       	callq  3cf <fan_rpm_store+0xdf>
 3cf:	8b 44 24 04          	mov    0x4(%rsp),%eax
 3d3:	b9 d8 0e 00 00       	mov    $0xed8,%ecx
 3d8:	48 89 ee             	mov    %rbp,%rsi
 3db:	c7 44 24 1e 00 01 00 	movl   $0x100,0x1e(%rsp)
 3e2:	00 
 3e3:	48 8b 7b 08          	mov    0x8(%rbx),%rdi
 3e7:	ba 48 0d 00 00       	mov    $0xd48,%edx
 3ec:	89 43 30             	mov    %eax,0x30(%rbx)
 3ef:	48 b8 00 1f 00 00 00 	movabs $0x820d040000001f00,%rax
 3f6:	04 0d 82 
 3f9:	48 89 44 24 16       	mov    %rax,0x16(%rsp)
 3fe:	e8 00 00 00 00       	callq  403 <fan_rpm_store+0x113>
 403:	b9 c8 20 03 00       	mov    $0x320c8,%ecx
 408:	48 89 ee             	mov    %rbp,%rsi
 40b:	c6 44 24 1f 01       	movb   $0x1,0x1f(%rsp)
 410:	8b 43 34             	mov    0x34(%rbx),%eax
 413:	c7 44 24 1b 04 0d 02 	movl   $0x20d04,0x1b(%rsp)
 41a:	00 
 41b:	88 44 24 20          	mov    %al,0x20(%rsp)
 41f:	8b 53 30             	mov    0x30(%rbx),%edx
 422:	85 d2                	test   %edx,%edx
 424:	ba e0 1c 03 00       	mov    $0x31ce0,%edx
 429:	0f 95 44 24 21       	setne  0x21(%rsp)
 42e:	48 8b 7b 08          	mov    0x8(%rbx),%rdi
 432:	e8 00 00 00 00       	callq  437 <fan_rpm_store+0x147>
 437:	b9 d8 0e 00 00       	mov    $0xed8,%ecx
 43c:	ba 48 0d 00 00       	mov    $0xd48,%edx
 441:	48 89 ee             	mov    %rbp,%rsi
 444:	c7 44 24 1b 03 0d 01 	movl   $0x10d03,0x1b(%rsp)
 44b:	00 
 44c:	c6 44 24 1f 01       	movb   $0x1,0x1f(%rsp)
 451:	44 88 7c 24 20       	mov    %r15b,0x20(%rsp)
 456:	c6 44 24 21 00       	movb   $0x0,0x21(%rsp)
 45b:	48 8b 7b 08          	mov    0x8(%rbx),%rdi
 45f:	e8 00 00 00 00       	callq  464 <fan_rpm_store+0x174>
 464:	b9 02 00 00 00       	mov    $0x2,%ecx
 469:	ba 48 0d 00 00       	mov    $0xd48,%edx
 46e:	48 89 ee             	mov    %rbp,%rsi
 471:	66 89 4c 24 1f       	mov    %cx,0x1f(%rsp)
 476:	b9 d8 0e 00 00       	mov    $0xed8,%ecx
 47b:	c7 44 24 1b 04 0d 82 	movl   $0x820d04,0x1b(%rsp)
 482:	00 
 483:	c6 44 24 21 00       	movb   $0x0,0x21(%rsp)
 488:	48 8b 7b 08          	mov    0x8(%rbx),%rdi
 48c:	e8 00 00 00 00       	callq  491 <fan_rpm_store+0x1a1>
 491:	c6 44 24 1f 02       	movb   $0x2,0x1f(%rsp)
 496:	8b 43 34             	mov    0x34(%rbx),%eax
 499:	b9 c8 20 03 00       	mov    $0x320c8,%ecx
 49e:	48 89 ee             	mov    %rbp,%rsi
 4a1:	c7 44 24 1b 04 0d 02 	movl   $0x20d04,0x1b(%rsp)
 4a8:	00 
 4a9:	ba e0 1c 03 00       	mov    $0x31ce0,%edx
 4ae:	88 44 24 20          	mov    %al,0x20(%rsp)
 4b2:	8b 43 30             	mov    0x30(%rbx),%eax
 4b5:	85 c0                	test   %eax,%eax
 4b7:	0f 95 44 24 21       	setne  0x21(%rsp)
 4bc:	48 8b 7b 08          	mov    0x8(%rbx),%rdi
 4c0:	e8 00 00 00 00       	callq  4c5 <fan_rpm_store+0x1d5>
 4c5:	48 83 7c 24 08 00    	cmpq   $0x0,0x8(%rsp)
 4cb:	75 2a                	jne    4f7 <fan_rpm_store+0x207>
 4cd:	4c 89 f7             	mov    %r14,%rdi
 4d0:	e8 00 00 00 00       	callq  4d5 <fan_rpm_store+0x1e5>
 4d5:	48 8b 44 24 70       	mov    0x70(%rsp),%rax
 4da:	65 48 33 04 25 28 00 	xor    %gs:0x28,%rax
 4e1:	00 00 
 4e3:	75 3b                	jne    520 <fan_rpm_store+0x230>
 4e5:	48 83 c4 78          	add    $0x78,%rsp
 4e9:	4c 89 e8             	mov    %r13,%rax
 4ec:	5b                   	pop    %rbx
 4ed:	5d                   	pop    %rbp
 4ee:	41 5c                	pop    %r12
 4f0:	41 5d                	pop    %r13
 4f2:	41 5e                	pop    %r14
 4f4:	41 5f                	pop    %r15
 4f6:	c3                   	retq   
 4f7:	44 88 7c 24 20       	mov    %r15b,0x20(%rsp)
 4fc:	31 c9                	xor    %ecx,%ecx
 4fe:	31 d2                	xor    %edx,%edx
 500:	48 89 ee             	mov    %rbp,%rsi
 503:	c7 44 24 1b 03 0d 01 	movl   $0x10d03,0x1b(%rsp)
 50a:	00 
 50b:	c6 44 24 1f 02       	movb   $0x2,0x1f(%rsp)
 510:	c6 44 24 21 00       	movb   $0x0,0x21(%rsp)
 515:	48 8b 7b 08          	mov    0x8(%rbx),%rdi
 519:	e8 00 00 00 00       	callq  51e <fan_rpm_store+0x22e>
 51e:	eb ad                	jmp    4cd <fan_rpm_store+0x1dd>
 520:	e8 00 00 00 00       	callq  525 <fan_rpm_store+0x235>
 525:	66 66 2e 0f 1f 84 00 	data16 nopw %cs:0x0(%rax,%rax,1)
 52c:	00 00 00 00 

0000000000000530 <razer_laptop_probe>:
 530:	e8 00 00 00 00       	callq  535 <razer_laptop_probe+0x5>
 535:	41 55                	push   %r13
 537:	49 89 fd             	mov    %rdi,%r13
 53a:	ba 38 00 00 00       	mov    $0x38,%edx
 53f:	be c0 0d 00 00       	mov    $0xdc0,%esi
 544:	41 54                	push   %r12
 546:	55                   	push   %rbp
 547:	53                   	push   %rbx
 548:	4c 8b a7 10 19 00 00 	mov    0x1910(%rdi),%r12
 54f:	48 8b 3d 00 00 00 00 	mov    0x0(%rip),%rdi        # 556 <razer_laptop_probe+0x26>
 556:	49 8b 44 24 40       	mov    0x40(%r12),%rax
 55b:	48 8d 98 60 ff ff ff 	lea    -0xa0(%rax),%rbx
 562:	e8 00 00 00 00       	callq  567 <razer_laptop_probe+0x37>
 567:	48 85 c0             	test   %rax,%rax
 56a:	74 4c                	je     5b8 <razer_laptop_probe+0x88>
 56c:	48 8d 78 10          	lea    0x10(%rax),%rdi
 570:	48 c7 c2 00 00 00 00 	mov    $0x0,%rdx
 577:	48 c7 c6 00 00 00 00 	mov    $0x0,%rsi
 57e:	48 89 c5             	mov    %rax,%rbp
 581:	e8 00 00 00 00       	callq  586 <razer_laptop_probe+0x56>
 586:	41 8b 7d 3c          	mov    0x3c(%r13),%edi
 58a:	48 89 5d 08          	mov    %rbx,0x8(%rbp)
 58e:	48 c7 45 30 00 00 00 	movq   $0x0,0x30(%rbp)
 595:	00 
 596:	89 7d 00             	mov    %edi,0x0(%rbp)
 599:	49 8b 44 24 d8       	mov    -0x28(%r12),%rax
 59e:	80 78 07 01          	cmpb   $0x1,0x7(%rax)
 5a2:	74 1b                	je     5bf <razer_laptop_probe+0x8f>
 5a4:	48 89 ef             	mov    %rbp,%rdi
 5a7:	e8 00 00 00 00       	callq  5ac <razer_laptop_probe+0x7c>
 5ac:	b8 ed ff ff ff       	mov    $0xffffffed,%eax
 5b1:	5b                   	pop    %rbx
 5b2:	5d                   	pop    %rbp
 5b3:	41 5c                	pop    %r12
 5b5:	41 5d                	pop    %r13
 5b7:	c3                   	retq   
 5b8:	b8 f4 ff ff ff       	mov    $0xfffffff4,%eax
 5bd:	eb f2                	jmp    5b1 <razer_laptop_probe+0x81>
 5bf:	e8 00 00 00 00       	callq  5c4 <razer_laptop_probe+0x94>
 5c4:	4c 89 e7             	mov    %r12,%rdi
 5c7:	48 c7 c6 00 00 00 00 	mov    $0x0,%rsi
 5ce:	4d 8d a5 d0 18 00 00 	lea    0x18d0(%r13),%r12
 5d5:	48 89 c2             	mov    %rax,%rdx
 5d8:	e8 00 00 00 00       	callq  5dd <razer_laptop_probe+0xad>
 5dd:	48 c7 c6 00 00 00 00 	mov    $0x0,%rsi
 5e4:	4c 89 e7             	mov    %r12,%rdi
 5e7:	e8 00 00 00 00       	callq  5ec <razer_laptop_probe+0xbc>
 5ec:	48 c7 c6 00 00 00 00 	mov    $0x0,%rsi
 5f3:	4c 89 e7             	mov    %r12,%rdi
 5f6:	e8 00 00 00 00       	callq  5fb <razer_laptop_probe+0xcb>
 5fb:	48 c7 c6 00 00 00 00 	mov    $0x0,%rsi
 602:	4c 89 e7             	mov    %r12,%rdi
 605:	e8 00 00 00 00       	callq  60a <razer_laptop_probe+0xda>
 60a:	4c 89 e7             	mov    %r12,%rdi
 60d:	48 c7 c6 00 00 00 00 	mov    $0x0,%rsi
 614:	e8 00 00 00 00       	callq  619 <razer_laptop_probe+0xe9>
 619:	49 89 ad 48 19 00 00 	mov    %rbp,0x1948(%r13)
 620:	4c 89 ef             	mov    %r13,%rdi
 623:	e8 00 00 00 00       	callq  628 <razer_laptop_probe+0xf8>
 628:	85 c0                	test   %eax,%eax
 62a:	0f 85 00 00 00 00    	jne    630 <razer_laptop_probe+0x100>
 630:	be 2d 00 00 00       	mov    $0x2d,%esi
 635:	4c 89 ef             	mov    %r13,%rdi
 638:	e8 00 00 00 00       	callq  63d <razer_laptop_probe+0x10d>
 63d:	85 c0                	test   %eax,%eax
 63f:	0f 84 6c ff ff ff    	je     5b1 <razer_laptop_probe+0x81>
 645:	e9 00 00 00 00       	jmpq   64a <razer_laptop_probe+0x11a>
 64a:	66 0f 1f 44 00 00    	nopw   0x0(%rax,%rax,1)

0000000000000650 <power_mode_show>:
 650:	e8 00 00 00 00       	callq  655 <power_mode_show+0x5>
 655:	48 8b 47 78          	mov    0x78(%rdi),%rax
 659:	8b 40 34             	mov    0x34(%rax),%eax
 65c:	85 c0                	test   %eax,%eax
 65e:	74 23                	je     683 <power_mode_show+0x33>
 660:	83 f8 01             	cmp    $0x1,%eax
 663:	74 41                	je     6a6 <power_mode_show+0x56>
 665:	48 b8 43 72 65 61 74 	movabs $0x20726f7461657243,%rax
 66c:	6f 72 20 
 66f:	c7 42 08 28 32 29 0a 	movl   $0xa293228,0x8(%rdx)
 676:	48 89 02             	mov    %rax,(%rdx)
 679:	b8 0c 00 00 00       	mov    $0xc,%eax
 67e:	c6 42 0c 00          	movb   $0x0,0xc(%rdx)
 682:	c3                   	retq   
 683:	48 b8 42 61 6c 61 6e 	movabs $0x6465636e616c6142,%rax
 68a:	63 65 64 
 68d:	c7 42 08 20 28 30 29 	movl   $0x29302820,0x8(%rdx)
 694:	48 89 02             	mov    %rax,(%rdx)
 697:	b8 0a 00 00 00       	mov    $0xa,%eax
 69c:	66 89 42 0c          	mov    %ax,0xc(%rdx)
 6a0:	b8 0d 00 00 00       	mov    $0xd,%eax
 6a5:	c3                   	retq   
 6a6:	48 b8 47 61 6d 69 6e 	movabs $0x2820676e696d6147,%rax
 6ad:	67 20 28 
 6b0:	c7 42 08 31 29 0a 00 	movl   $0xa2931,0x8(%rdx)
 6b7:	48 89 02             	mov    %rax,(%rdx)
 6ba:	b8 0b 00 00 00       	mov    $0xb,%eax
 6bf:	c3                   	retq   

00000000000006c0 <fan_rpm_show>:
 6c0:	e8 00 00 00 00       	callq  6c5 <fan_rpm_show+0x5>
 6c5:	49 89 f8             	mov    %rdi,%r8
 6c8:	48 89 d7             	mov    %rdx,%rdi
 6cb:	49 8b 40 78          	mov    0x78(%r8),%rax
 6cf:	8b 50 30             	mov    0x30(%rax),%edx
 6d2:	85 d2                	test   %edx,%edx
 6d4:	74 0f                	je     6e5 <fan_rpm_show+0x25>
 6d6:	48 c7 c6 00 00 00 00 	mov    $0x0,%rsi
 6dd:	e8 00 00 00 00       	callq  6e2 <fan_rpm_show+0x22>
 6e2:	48 98                	cltq   
 6e4:	c3                   	retq   
 6e5:	48 b8 41 75 74 6f 6d 	movabs $0x6974616d6f747541,%rax
 6ec:	61 74 69 
 6ef:	c7 47 08 63 20 28 30 	movl   $0x30282063,0x8(%rdi)
 6f6:	48 89 07             	mov    %rax,(%rdi)
 6f9:	b8 29 0a 00 00       	mov    $0xa29,%eax
 6fe:	66 89 47 0c          	mov    %ax,0xc(%rdi)
 702:	b8 0e 00 00 00       	mov    $0xe,%eax
 707:	c6 47 0e 00          	movb   $0x0,0xe(%rdi)
 70b:	c3                   	retq   
 70c:	0f 1f 40 00          	nopl   0x0(%rax)

0000000000000710 <get_max_fan_rpm>:
 710:	e8 00 00 00 00       	callq  715 <get_max_fan_rpm+0x5>
 715:	8d 8f d3 fd ff ff    	lea    -0x22d(%rdi),%ecx
 71b:	83 f9 0c             	cmp    $0xc,%ecx
 71e:	77 1e                	ja     73e <get_max_fan_rpm+0x2e>
 720:	b8 01 00 00 00       	mov    $0x1,%eax
 725:	48 d3 e0             	shl    %cl,%rax
 728:	25 21 10 00 00       	and    $0x1021,%eax
 72d:	48 83 f8 01          	cmp    $0x1,%rax
 731:	19 c0                	sbb    %eax,%eax
 733:	25 d4 fe ff ff       	and    $0xfffffed4,%eax
 738:	05 b4 14 00 00       	add    $0x14b4,%eax
 73d:	c3                   	retq   
 73e:	b8 88 13 00 00       	mov    $0x1388,%eax
 743:	c3                   	retq   
 744:	66 66 2e 0f 1f 84 00 	data16 nopw %cs:0x0(%rax,%rax,1)
 74b:	00 00 00 00 
 74f:	90                   	nop

0000000000000750 <clampFanRPM>:
 750:	e8 00 00 00 00       	callq  755 <clampFanRPM+0x5>
 755:	8d 8e d3 fd ff ff    	lea    -0x22d(%rsi),%ecx
 75b:	83 f9 0c             	cmp    $0xc,%ecx
 75e:	77 41                	ja     7a1 <clampFanRPM+0x51>
 760:	ba 01 00 00 00       	mov    $0x1,%edx
 765:	48 d3 e2             	shl    %cl,%rdx
 768:	81 e2 21 10 00 00    	and    $0x1021,%edx
 76e:	48 83 fa 01          	cmp    $0x1,%rdx
 772:	19 c9                	sbb    %ecx,%ecx
 774:	81 e1 d4 fe ff ff    	and    $0xfffffed4,%ecx
 77a:	81 c1 b4 14 00 00    	add    $0x14b4,%ecx
 780:	89 c8                	mov    %ecx,%eax
 782:	39 cf                	cmp    %ecx,%edi
 784:	77 0f                	ja     795 <clampFanRPM+0x45>
 786:	b8 23 00 00 00       	mov    $0x23,%eax
 78b:	81 ff ab 0d 00 00    	cmp    $0xdab,%edi
 791:	76 0d                	jbe    7a0 <clampFanRPM+0x50>
 793:	89 f8                	mov    %edi,%eax
 795:	48 69 c0 1f 85 eb 51 	imul   $0x51eb851f,%rax,%rax
 79c:	48 c1 e8 25          	shr    $0x25,%rax
 7a0:	c3                   	retq   
 7a1:	b9 88 13 00 00       	mov    $0x1388,%ecx
 7a6:	b8 88 13 00 00       	mov    $0x1388,%eax
 7ab:	eb d5                	jmp    782 <clampFanRPM+0x32>
 7ad:	0f 1f 00             	nopl   (%rax)

00000000000007b0 <creatorModeAllowed>:
 7b0:	e8 00 00 00 00       	callq  7b5 <creatorModeAllowed+0x5>
 7b5:	b8 01 00 00 00       	mov    $0x1,%eax
 7ba:	81 ff 3a 02 00 00    	cmp    $0x23a,%edi
 7c0:	74 0b                	je     7cd <creatorModeAllowed+0x1d>
 7c2:	31 c0                	xor    %eax,%eax
 7c4:	81 ff 45 02 00 00    	cmp    $0x245,%edi
 7ca:	0f 94 c0             	sete   %al
 7cd:	c3                   	retq   
 7ce:	66 90                	xchg   %ax,%ax

00000000000007d0 <getDeviceDescription>:
 7d0:	e8 00 00 00 00       	callq  7d5 <getDeviceDescription+0x5>
 7d5:	81 ef 0f 02 00 00    	sub    $0x20f,%edi
 7db:	48 c7 c0 00 00 00 00 	mov    $0x0,%rax
 7e2:	83 ff 36             	cmp    $0x36,%edi
 7e5:	77 08                	ja     7ef <getDeviceDescription+0x1f>
 7e7:	48 8b 04 fd 00 00 00 	mov    0x0(,%rdi,8),%rax
 7ee:	00 
 7ef:	c3                   	retq   

00000000000007f0 <send_payload>:
 7f0:	e8 00 00 00 00       	callq  7f5 <send_payload+0x5>
 7f5:	41 56                	push   %r14
 7f7:	48 8d 46 02          	lea    0x2(%rsi),%rax
 7fb:	41 55                	push   %r13
 7fd:	49 89 cd             	mov    %rcx,%r13
 800:	41 54                	push   %r12
 802:	49 89 d4             	mov    %rdx,%r12
 805:	31 d2                	xor    %edx,%edx
 807:	55                   	push   %rbp
 808:	48 89 fd             	mov    %rdi,%rbp
 80b:	48 89 f7             	mov    %rsi,%rdi
 80e:	48 8d 76 58          	lea    0x58(%rsi),%rsi
 812:	0f be 08             	movsbl (%rax),%ecx
 815:	48 83 c0 01          	add    $0x1,%rax
 819:	31 ca                	xor    %ecx,%edx
 81b:	48 39 f0             	cmp    %rsi,%rax
 81e:	75 f2                	jne    812 <send_payload+0x22>
 820:	88 57 58             	mov    %dl,0x58(%rdi)
 823:	be 5a 00 00 00       	mov    $0x5a,%esi
 828:	ba c0 0c 00 00       	mov    $0xcc0,%edx
 82d:	e8 00 00 00 00       	callq  832 <send_payload+0x42>
 832:	8b 75 00             	mov    0x0(%rbp),%esi
 835:	b9 21 00 00 00       	mov    $0x21,%ecx
 83a:	48 89 ef             	mov    %rbp,%rdi
 83d:	68 88 13 00 00       	pushq  $0x1388
 842:	41 b9 02 00 00 00    	mov    $0x2,%r9d
 848:	ba 09 00 00 00       	mov    $0x9,%edx
 84d:	49 89 c6             	mov    %rax,%r14
 850:	6a 5a                	pushq  $0x5a
 852:	c1 e6 08             	shl    $0x8,%esi
 855:	41 b8 00 03 00 00    	mov    $0x300,%r8d
 85b:	50                   	push   %rax
 85c:	81 ce 00 00 00 80    	or     $0x80000000,%esi
 862:	e8 00 00 00 00       	callq  867 <send_payload+0x77>
 867:	4c 89 ee             	mov    %r13,%rsi
 86a:	4c 89 e7             	mov    %r12,%rdi
 86d:	e8 00 00 00 00       	callq  872 <send_payload+0x82>
 872:	4c 89 f7             	mov    %r14,%rdi
 875:	e8 00 00 00 00       	callq  87a <send_payload+0x8a>
 87a:	31 c0                	xor    %eax,%eax
 87c:	48 83 c4 18          	add    $0x18,%rsp
 880:	5d                   	pop    %rbp
 881:	41 5c                	pop    %r12
 883:	41 5d                	pop    %r13
 885:	41 5e                	pop    %r14
 887:	c3                   	retq   
 888:	0f 1f 84 00 00 00 00 	nopl   0x0(%rax,%rax,1)
 88f:	00 

0000000000000890 <crc>:
 890:	e8 00 00 00 00       	callq  895 <crc+0x5>
 895:	48 8d 47 02          	lea    0x2(%rdi),%rax
 899:	48 8d 77 58          	lea    0x58(%rdi),%rsi
 89d:	31 d2                	xor    %edx,%edx
 89f:	0f be 08             	movsbl (%rax),%ecx
 8a2:	48 83 c0 01          	add    $0x1,%rax
 8a6:	31 ca                	xor    %ecx,%edx
 8a8:	48 39 f0             	cmp    %rsi,%rax
 8ab:	75 f2                	jne    89f <crc+0xf>
 8ad:	88 57 58             	mov    %dl,0x58(%rdi)
 8b0:	c3                   	retq   
 8b1:	66 2e 0f 1f 84 00 00 	nopw   %cs:0x0(%rax,%rax,1)
 8b8:	00 00 00 
 8bb:	0f 1f 44 00 00       	nopl   0x0(%rax,%rax,1)

00000000000008c0 <sendRowDataToProfile>:
 8c0:	e8 00 00 00 00       	callq  8c5 <sendRowDataToProfile+0x5>
 8c5:	48 81 ec c0 00 00 00 	sub    $0xc0,%rsp
 8cc:	49 89 f8             	mov    %rdi,%r8
 8cf:	65 48 8b 04 25 28 00 	mov    %gs:0x28,%rax
 8d6:	00 00 
 8d8:	48 89 84 24 b8 00 00 	mov    %rax,0xb8(%rsp)
 8df:	00 
 8e0:	31 c0                	xor    %eax,%eax
 8e2:	4c 8d 4c 24 5e       	lea    0x5e(%rsp),%r9
 8e7:	48 8d 7c 24 60       	lea    0x60(%rsp),%rdi
 8ec:	48 c7 44 24 5e 00 00 	movq   $0x0,0x5e(%rsp)
 8f3:	00 00 
 8f5:	48 c7 84 24 b0 00 00 	movq   $0x0,0xb0(%rsp)
 8fc:	00 00 00 00 00 
 901:	4c 89 c9             	mov    %r9,%rcx
 904:	48 29 f9             	sub    %rdi,%rcx
 907:	83 c1 5a             	add    $0x5a,%ecx
 90a:	c1 e9 03             	shr    $0x3,%ecx
 90d:	f3 48 ab             	rep stos %rax,%es:(%rdi)
 910:	48 8d 7c 24 08       	lea    0x8(%rsp),%rdi
 915:	b9 0a 00 00 00       	mov    $0xa,%ecx
 91a:	48 c7 44 24 04 00 00 	movq   $0x0,0x4(%rsp)
 921:	00 00 
 923:	48 c7 44 24 56 00 00 	movq   $0x0,0x56(%rsp)
 92a:	00 00 
 92c:	f3 48 ab             	rep stos %rax,%es:(%rdi)
 92f:	c6 44 24 05 1f       	movb   $0x1f,0x5(%rsp)
 934:	48 8d 44 24 13       	lea    0x13(%rsp),%rax
 939:	c7 44 24 09 34 03 0b 	movl   $0xff0b0334,0x9(%rsp)
 940:	ff 
 941:	c6 44 24 0f 0f       	movb   $0xf,0xf(%rsp)
 946:	40 88 74 24 0d       	mov    %sil,0xd(%rsp)
 94b:	48 8d 74 24 40       	lea    0x40(%rsp),%rsi
 950:	0f b6 0a             	movzbl (%rdx),%ecx
 953:	48 83 c0 03          	add    $0x3,%rax
 957:	48 83 c2 04          	add    $0x4,%rdx
 95b:	88 48 fd             	mov    %cl,-0x3(%rax)
 95e:	0f b6 4a fd          	movzbl -0x3(%rdx),%ecx
 962:	88 48 fe             	mov    %cl,-0x2(%rax)
 965:	0f b6 4a fe          	movzbl -0x2(%rdx),%ecx
 969:	88 48 ff             	mov    %cl,-0x1(%rax)
 96c:	48 39 f0             	cmp    %rsi,%rax
 96f:	75 df                	jne    950 <sendRowDataToProfile+0x90>
 971:	48 8b 44 24 04       	mov    0x4(%rsp),%rax
 976:	4c 89 c7             	mov    %r8,%rdi
 979:	b9 e8 03 00 00       	mov    $0x3e8,%ecx
 97e:	4c 89 ce             	mov    %r9,%rsi
 981:	ba e8 03 00 00       	mov    $0x3e8,%edx
 986:	48 89 44 24 5e       	mov    %rax,0x5e(%rsp)
 98b:	48 8b 44 24 0c       	mov    0xc(%rsp),%rax
 990:	48 89 44 24 66       	mov    %rax,0x66(%rsp)
 995:	48 8b 44 24 14       	mov    0x14(%rsp),%rax
 99a:	48 89 44 24 6e       	mov    %rax,0x6e(%rsp)
 99f:	48 8b 44 24 1c       	mov    0x1c(%rsp),%rax
 9a4:	48 89 44 24 76       	mov    %rax,0x76(%rsp)
 9a9:	48 8b 44 24 24       	mov    0x24(%rsp),%rax
 9ae:	48 89 44 24 7e       	mov    %rax,0x7e(%rsp)
 9b3:	48 8b 44 24 2c       	mov    0x2c(%rsp),%rax
 9b8:	48 89 84 24 86 00 00 	mov    %rax,0x86(%rsp)
 9bf:	00 
 9c0:	48 8b 44 24 34       	mov    0x34(%rsp),%rax
 9c5:	48 89 84 24 8e 00 00 	mov    %rax,0x8e(%rsp)
 9cc:	00 
 9cd:	48 8b 44 24 3c       	mov    0x3c(%rsp),%rax
 9d2:	48 89 84 24 96 00 00 	mov    %rax,0x96(%rsp)
 9d9:	00 
 9da:	48 8b 44 24 44       	mov    0x44(%rsp),%rax
 9df:	48 89 84 24 9e 00 00 	mov    %rax,0x9e(%rsp)
 9e6:	00 
 9e7:	48 8b 44 24 4c       	mov    0x4c(%rsp),%rax
 9ec:	48 89 84 24 a6 00 00 	mov    %rax,0xa6(%rsp)
 9f3:	00 
 9f4:	48 8b 44 24 54       	mov    0x54(%rsp),%rax
 9f9:	48 89 84 24 ae 00 00 	mov    %rax,0xae(%rsp)
 a00:	00 
 a01:	0f b7 44 24 5c       	movzwl 0x5c(%rsp),%eax
 a06:	66 89 84 24 b6 00 00 	mov    %ax,0xb6(%rsp)
 a0d:	00 
 a0e:	e8 00 00 00 00       	callq  a13 <sendRowDataToProfile+0x153>
 a13:	48 8b bc 24 b8 00 00 	mov    0xb8(%rsp),%rdi
 a1a:	00 
 a1b:	65 48 33 3c 25 28 00 	xor    %gs:0x28,%rdi
 a22:	00 00 
 a24:	75 08                	jne    a2e <sendRowDataToProfile+0x16e>
 a26:	48 81 c4 c0 00 00 00 	add    $0xc0,%rsp
 a2d:	c3                   	retq   
 a2e:	e8 00 00 00 00       	callq  a33 <sendRowDataToProfile+0x173>
 a33:	66 66 2e 0f 1f 84 00 	data16 nopw %cs:0x0(%rax,%rax,1)
 a3a:	00 00 00 00 
 a3e:	66 90                	xchg   %ax,%ax

0000000000000a40 <displayProfile>:
 a40:	e8 00 00 00 00       	callq  a45 <displayProfile+0x5>
 a45:	48 81 ec c0 00 00 00 	sub    $0xc0,%rsp
 a4c:	49 89 f8             	mov    %rdi,%r8
 a4f:	b9 0a 00 00 00       	mov    $0xa,%ecx
 a54:	ba e8 03 00 00       	mov    $0x3e8,%edx
 a59:	65 48 8b 04 25 28 00 	mov    %gs:0x28,%rax
 a60:	00 00 
 a62:	48 89 84 24 b8 00 00 	mov    %rax,0xb8(%rsp)
 a69:	00 
 a6a:	31 c0                	xor    %eax,%eax
 a6c:	48 8d 7c 24 08       	lea    0x8(%rsp),%rdi
 a71:	48 8d 74 24 5e       	lea    0x5e(%rsp),%rsi
 a76:	48 c7 44 24 04 00 00 	movq   $0x0,0x4(%rsp)
 a7d:	00 00 
 a7f:	48 c7 44 24 56 00 00 	movq   $0x0,0x56(%rsp)
 a86:	00 00 
 a88:	f3 48 ab             	rep stos %rax,%es:(%rdi)
 a8b:	c6 44 24 05 1f       	movb   $0x1f,0x5(%rsp)
 a90:	b9 e8 03 00 00       	mov    $0x3e8,%ecx
 a95:	4c 89 c7             	mov    %r8,%rdi
 a98:	c7 44 24 09 02 03 0a 	movl   $0x50a0302,0x9(%rsp)
 a9f:	05 
 aa0:	48 8b 44 24 04       	mov    0x4(%rsp),%rax
 aa5:	48 89 44 24 5e       	mov    %rax,0x5e(%rsp)
 aaa:	48 8b 44 24 0c       	mov    0xc(%rsp),%rax
 aaf:	48 89 44 24 66       	mov    %rax,0x66(%rsp)
 ab4:	48 8b 44 24 14       	mov    0x14(%rsp),%rax
 ab9:	48 89 44 24 6e       	mov    %rax,0x6e(%rsp)
 abe:	48 8b 44 24 1c       	mov    0x1c(%rsp),%rax
 ac3:	48 89 44 24 76       	mov    %rax,0x76(%rsp)
 ac8:	48 8b 44 24 24       	mov    0x24(%rsp),%rax
 acd:	48 89 44 24 7e       	mov    %rax,0x7e(%rsp)
 ad2:	48 8b 44 24 2c       	mov    0x2c(%rsp),%rax
 ad7:	48 89 84 24 86 00 00 	mov    %rax,0x86(%rsp)
 ade:	00 
 adf:	48 8b 44 24 34       	mov    0x34(%rsp),%rax
 ae4:	48 89 84 24 8e 00 00 	mov    %rax,0x8e(%rsp)
 aeb:	00 
 aec:	48 8b 44 24 3c       	mov    0x3c(%rsp),%rax
 af1:	48 89 84 24 96 00 00 	mov    %rax,0x96(%rsp)
 af8:	00 
 af9:	48 8b 44 24 44       	mov    0x44(%rsp),%rax
 afe:	48 89 84 24 9e 00 00 	mov    %rax,0x9e(%rsp)
 b05:	00 
 b06:	48 8b 44 24 4c       	mov    0x4c(%rsp),%rax
 b0b:	48 89 84 24 a6 00 00 	mov    %rax,0xa6(%rsp)
 b12:	00 
 b13:	48 8b 44 24 54       	mov    0x54(%rsp),%rax
 b18:	48 89 84 24 ae 00 00 	mov    %rax,0xae(%rsp)
 b1f:	00 
 b20:	0f b7 44 24 5c       	movzwl 0x5c(%rsp),%eax
 b25:	66 89 84 24 b6 00 00 	mov    %ax,0xb6(%rsp)
 b2c:	00 
 b2d:	e8 00 00 00 00       	callq  b32 <displayProfile+0xf2>
 b32:	48 8b 94 24 b8 00 00 	mov    0xb8(%rsp),%rdx
 b39:	00 
 b3a:	65 48 33 14 25 28 00 	xor    %gs:0x28,%rdx
 b41:	00 00 
 b43:	75 08                	jne    b4d <displayProfile+0x10d>
 b45:	48 81 c4 c0 00 00 00 	add    $0xc0,%rsp
 b4c:	c3                   	retq   
 b4d:	e8 00 00 00 00       	callq  b52 <displayProfile+0x112>

Disassembly of section .text.unlikely:

0000000000000000 <rgb_row_store.cold>:
   0:	48 89 ca             	mov    %rcx,%rdx
   3:	48 c7 c6 00 00 00 00 	mov    $0x0,%rsi
   a:	e8 00 00 00 00       	callq  f <rgb_row_store.cold+0xf>
   f:	48 c7 c0 ea ff ff ff 	mov    $0xffffffffffffffea,%rax
  16:	e9 00 00 00 00       	jmpq   1b <rgb_map_store.cold>

000000000000001b <rgb_map_store.cold>:
  1b:	48 c7 c6 00 00 00 00 	mov    $0x0,%rsi
  22:	4c 89 c7             	mov    %r8,%rdi
  25:	e8 00 00 00 00       	callq  2a <rgb_map_store.cold+0xf>
  2a:	48 c7 c0 ea ff ff ff 	mov    $0xffffffffffffffea,%rax
  31:	e9 00 00 00 00       	jmpq   36 <power_mode_store.cold>

0000000000000036 <power_mode_store.cold>:
  36:	48 c7 c6 00 00 00 00 	mov    $0x0,%rsi
  3d:	48 89 ef             	mov    %rbp,%rdi
  40:	e8 00 00 00 00       	callq  45 <power_mode_store.cold+0xf>
  45:	48 c7 04 24 00 00 00 	movq   $0x0,(%rsp)
  4c:	00 
  4d:	48 c7 c2 00 00 00 00 	mov    $0x0,%rdx
  54:	48 c7 c6 00 00 00 00 	mov    $0x0,%rsi
  5b:	48 89 ef             	mov    %rbp,%rdi
  5e:	e8 00 00 00 00       	callq  63 <power_mode_store.cold+0x2d>
  63:	48 8b 04 24          	mov    (%rsp),%rax
  67:	4c 89 e7             	mov    %r12,%rdi
  6a:	b9 5a 00 00 00       	mov    $0x5a,%ecx
  6f:	4c 89 e6             	mov    %r12,%rsi
  72:	49 89 dd             	mov    %rbx,%r13
  75:	41 89 46 34          	mov    %eax,0x34(%r14)
  79:	31 c0                	xor    %eax,%eax
  7b:	f3 aa                	rep stos %al,%es:(%rdi)
  7d:	c6 44 24 0f 1f       	movb   $0x1f,0xf(%rsp)
  82:	c6 44 24 15 02       	movb   $0x2,0x15(%rsp)
  87:	c6 44 24 17 01       	movb   $0x1,0x17(%rsp)
  8c:	41 8b 46 34          	mov    0x34(%r14),%eax
  90:	66 c7 44 24 13 04 0d 	movw   $0xd04,0x13(%rsp)
  97:	88 44 24 18          	mov    %al,0x18(%rsp)
  9b:	41 83 7e 30 00       	cmpl   $0x0,0x30(%r14)
  a0:	0f 95 44 24 19       	setne  0x19(%rsp)
  a5:	49 8b 7e 08          	mov    0x8(%r14),%rdi
  a9:	31 d2                	xor    %edx,%edx
  ab:	e8 00 00 00 00       	callq  b0 <power_mode_store.cold+0x7a>
  b0:	e9 00 00 00 00       	jmpq   b5 <power_mode_store.cold+0x7f>
  b5:	48 83 3c 24 01       	cmpq   $0x1,(%rsp)
  ba:	75 18                	jne    d4 <power_mode_store.cold+0x9e>
  bc:	48 c7 c2 00 00 00 00 	mov    $0x0,%rdx
  c3:	48 c7 c6 00 00 00 00 	mov    $0x0,%rsi
  ca:	48 89 ef             	mov    %rbp,%rdi
  cd:	e8 00 00 00 00       	callq  d2 <power_mode_store.cold+0x9c>
  d2:	eb 8f                	jmp    63 <power_mode_store.cold+0x2d>
  d4:	48 c7 c2 00 00 00 00 	mov    $0x0,%rdx
  db:	48 c7 c6 00 00 00 00 	mov    $0x0,%rsi
  e2:	48 89 ef             	mov    %rbp,%rdi
  e5:	48 c7 04 24 01 00 00 	movq   $0x1,(%rsp)
  ec:	00 
  ed:	e8 00 00 00 00       	callq  f2 <power_mode_store.cold+0xbc>
  f2:	e9 6c ff ff ff       	jmpq   63 <power_mode_store.cold+0x2d>

00000000000000f7 <fan_rpm_store.cold>:
  f7:	48 c7 c6 00 00 00 00 	mov    $0x0,%rsi
  fe:	4c 89 e7             	mov    %r12,%rdi
 101:	45 31 ff             	xor    %r15d,%r15d
 104:	e8 00 00 00 00       	callq  109 <fan_rpm_store.cold+0x12>
 109:	c7 43 30 00 00 00 00 	movl   $0x0,0x30(%rbx)
 110:	e9 00 00 00 00       	jmpq   115 <fan_rpm_store.cold+0x1e>
 115:	48 c7 c6 00 00 00 00 	mov    $0x0,%rsi
 11c:	4c 89 e7             	mov    %r12,%rdi
 11f:	e8 00 00 00 00       	callq  124 <fan_rpm_store.cold+0x2d>
 124:	e9 00 00 00 00       	jmpq   129 <razer_laptop_probe.cold>

0000000000000129 <razer_laptop_probe.cold>:
 129:	48 c7 c6 00 00 00 00 	mov    $0x0,%rsi
 130:	4c 89 e7             	mov    %r12,%rdi
 133:	e8 00 00 00 00       	callq  138 <razer_laptop_probe.cold+0xf>
 138:	48 89 ef             	mov    %rbp,%rdi
 13b:	e8 00 00 00 00       	callq  140 <razer_laptop_probe.cold+0x17>
 140:	b8 ed ff ff ff       	mov    $0xffffffed,%eax
 145:	e9 00 00 00 00       	jmpq   14a <razer_laptop_probe.cold+0x21>
 14a:	48 c7 c6 00 00 00 00 	mov    $0x0,%rsi
 151:	4c 89 e7             	mov    %r12,%rdi
 154:	e8 00 00 00 00       	callq  159 <razer_laptop_probe.cold+0x30>
 159:	48 89 ef             	mov    %rbp,%rdi
 15c:	e8 00 00 00 00       	callq  161 <razer_laptop_probe.cold+0x38>
 161:	b8 ed ff ff ff       	mov    $0xffffffed,%eax
 166:	e9 00 00 00 00       	jmpq   16b <__UNIQUE_ID_alias31+0x9>

Disassembly of section .init.text:

0000000000000000 <init_module>:
   0:	e8 00 00 00 00       	callq  5 <init_module+0x5>
   5:	48 c7 c2 00 00 00 00 	mov    $0x0,%rdx
   c:	48 c7 c6 00 00 00 00 	mov    $0x0,%rsi
  13:	48 c7 c7 00 00 00 00 	mov    $0x0,%rdi
  1a:	e9 00 00 00 00       	jmpq   1f <rgb_map_store.cold+0x4>

Disassembly of section .exit.text:

0000000000000000 <cleanup_module>:
   0:	48 c7 c7 00 00 00 00 	mov    $0x0,%rdi
   7:	e9 00 00 00 00       	jmpq   c <cleanup_module+0xc>
