
razercontrol.ko:     file format elf64-x86-64
architecture: i386:x86-64, flags 0x00000011:
HAS_RELOC, HAS_SYMS
start address 0x0000000000000000

Contents of section .note.gnu.build-id:
 0000 04000000 14000000 03000000 474e5500  ............GNU.
 0010 9ca72043 27d15127 70e06434 c38d569c  .. C'.Q'p.d4..V.
 0020 95a1a1d3                             ....            
Contents of section .note.Linux:
 0000 06000000 01000000 00010000 4c696e75  ............Linu
 0010 78000000 00000000                    x.......        
Contents of section .text:
 0000 e8000000 004889c8 c30f1f80 00000000  .....H..........
 0010 e8000000 00415648 c7c60000 00004155  .....AVH......AU
 0020 41544c8d a7d01800 00554889 fd4c8baf  ATL......UH..L..
 0030 10190000 4c8bb748 1900004c 89e7e800  ....L..H...L....
 0040 0000004c 89e748c7 c6000000 00e80000  ...L..H.........
 0050 00004c89 e748c7c6 00000000 e8000000  ..L..H..........
 0060 004c89e7 48c7c600 000000e8 00000000  .L..H...........
 0070 4c89e748 c7c60000 0000e800 00000048  L..H...........H
 0080 c7c60000 00004c89 e7e80000 00004889  ......L.......H.
 0090 efe80000 00004c89 f7e80000 00004c89  ......L.......L.
 00a0 ef5d48c7 c6000000 00415c41 5d415ee9  .]H......A\A]A^.
 00b0 00000000 66662e0f 1f840000 00000090  ....ff..........
 00c0 e8000000 00415741 56415549 89d54154  .....AWAVAUI..AT
 00d0 554889fd 534889cb 4883ec70 65488b04  UH..SH..H..peH..
 00e0 25280000 00488944 246831c0 4c8d6424  %(...H.D$h1.L.d$
 00f0 0e488d7c 241048c7 04240000 000048c7  .H.|$.H..$....H.
 0100 44240e00 0000004c 89e148c7 44246000  D$.....L..H.D$`.
 0110 00000048 29f983c1 5ac1e903 f348ab4c  ...H)...Z....H.L
 0120 8b75784d 8d7e104c 89ffe800 000000be  .uxM.~.L........
 0130 0a000000 4c89ef48 89e2e800 00000085  ....L..H........
 0140 c00f8500 00000048 8b042448 83f80277  .......H..$H...w
 0150 294885c0 0f840000 00004883 f8020f85  )H........H.....
 0160 00000000 418b3ee8 00000000 83f8010f  ....A.>.........
 0170 85000000 00e90000 000049c7 c5eaffff  ..........I.....
 0180 ff4c89ff e8000000 00488b44 24686548  .L.......H.D$heH
 0190 33042528 00000075 124883c4 704c89e8  3.%(...u.H..pL..
 01a0 5b5d415c 415d415e 415fc3e8 00000000  []A\A]A^A_......
 01b0 e8000000 00415749 89d74156 41554989  .....AWI..AVAUI.
 01c0 cdb90b00 00004154 4989fc55 534883ec  ......ATI..USH..
 01d0 7865488b 04252800 00004889 44247031  xeH..%(...H.D$p1
 01e0 c0488d7c 241848c7 44240800 00000048  .H.|$.H.D$.....H
 01f0 c7442416 00000000 48c74424 68000000  .D$.....H.D$h...
 0200 00f348ab 498b5c24 784c8d73 104c89f7  ..H.I.\$xL.s.L..
 0210 e8000000 0031c0be 0a000000 488d6c24  .....1......H.l$
 0220 16488d7c 241848c7 44241600 00000048  .H.|$.H.D$.....H
 0230 89e9488d 54240848 c7442468 00000000  ..H.T$.H.D$h....
 0240 4829f983 c15ac1e9 03f348ab 4c89ffe8  H)...Z....H.L...
 0250 00000000 85c00f85 00000000 488b7c24  ............H.|$
 0260 084885ff 0f840000 00008b33 e8000000  .H.........3....
 0270 0048c7c6 00000000 4c89e741 89c70fb6  .H......L..A....
 0280 c06bc064 89c28944 2404e800 0000008b  .k.d...D$.......
 0290 442404b9 d80e0000 4889eec7 44241e00  D$......H...D$..
 02a0 01000048 8b7b08ba 480d0000 89433048  ...H.{..H....C0H
 02b0 b8001f00 0000040d 82488944 2416e800  .........H.D$...
 02c0 000000b9 c8200300 4889eec6 44241f01  ..... ..H...D$..
 02d0 8b4334c7 44241b04 0d020088 4424208b  .C4.D$......D$ .
 02e0 533085d2 bae01c03 000f9544 2421488b  S0.........D$!H.
 02f0 7b08e800 000000b9 d80e0000 ba480d00  {............H..
 0300 004889ee c744241b 030d0100 c644241f  .H...D$......D$.
 0310 0144887c 2420c644 24210048 8b7b08e8  .D.|$ .D$!.H.{..
 0320 00000000 b9020000 00ba480d 00004889  ..........H...H.
 0330 ee66894c 241fb9d8 0e0000c7 44241b04  .f.L$.......D$..
 0340 0d8200c6 44242100 488b7b08 e8000000  ....D$!.H.{.....
 0350 00c64424 1f028b43 34b9c820 03004889  ..D$...C4.. ..H.
 0360 eec74424 1b040d02 00bae01c 03008844  ..D$...........D
 0370 24208b43 3085c00f 95442421 488b7b08  $ .C0....D$!H.{.
 0380 e8000000 0048837c 24080075 2a4c89f7  .....H.|$..u*L..
 0390 e8000000 00488b44 24706548 33042528  .....H.D$peH3.%(
 03a0 00000075 3b4883c4 784c89e8 5b5d415c  ...u;H..xL..[]A\
 03b0 415d415e 415fc344 887c2420 31c931d2  A]A^A_.D.|$ 1.1.
 03c0 4889eec7 44241b03 0d0100c6 44241f02  H...D$......D$..
 03d0 c6442421 00488b7b 08e80000 0000ebad  .D$!.H.{........
 03e0 e8000000 0066662e 0f1f8400 00000000  .....ff.........
 03f0 e8000000 004155ba 38000000 bec00d00  .....AU.8.......
 0400 00415449 89fc5553 4c8baf10 19000048  .ATI..USL......H
 0410 8b3d0000 0000498b 4540488d 9860ffff  .=....I.E@H..`..
 0420 ffe80000 00004885 c0745048 8d781048  ......H..tPH.x.H
 0430 c7c20000 000048c7 c6000000 004889c5  ......H......H..
 0440 e8000000 00418b44 243c4889 5d0848c7  .....A.D$<H.].H.
 0450 45300000 00008945 00498b55 d8807a07  E0.....E.I.U..z.
 0460 010f8400 00000048 89efe800 000000b8  .......H........
 0470 edffffff 5b5d415c 415dc3b8 f4ffffff  ....[]A\A]......
 0480 ebf26666 2e0f1f84 00000000 000f1f00  ..ff............
 0490 e8000000 00488b47 788b4034 85c07423  .....H.Gx.@4..t#
 04a0 83f80174 4148b843 72656174 6f7220c7  ...tAH.Creator .
 04b0 42082832 290a4889 02b80c00 0000c642  B.(2).H........B
 04c0 0c00c348 b842616c 616e6365 64c74208  ...H.Balanced.B.
 04d0 20283029 488902b8 0a000000 6689420c   (0)H.......f.B.
 04e0 b80d0000 00c348b8 47616d69 6e672028  ......H.Gaming (
 04f0 c7420831 290a0048 8902b80b 000000c3  .B.1)..H........
 0500 e8000000 004989f8 4889d749 8b40788b  .....I..H..I.@x.
 0510 503085d2 740f48c7 c6000000 00e80000  P0..t.H.........
 0520 00004898 c348b841 75746f6d 617469c7  ..H..H.Automati.
 0530 47086320 28304889 07b8290a 00006689  G.c (0H...)...f.
 0540 470cb80e 000000c6 470e00c3 0f1f4000  G.......G.....@.
 0550 e8000000 004889c8 c30f1f80 00000000  .....H..........
 0560 e8000000 004889c8 c30f1f80 00000000  .....H..........
 0570 e8000000 004889c8 c30f1f80 00000000  .....H..........
 0580 e8000000 008d8fd3 fdffff83 f90c771e  ..............w.
 0590 b8010000 0048d3e0 25211000 004883f8  .....H..%!...H..
 05a0 0119c025 d4feffff 05b41400 00c3b888  ...%............
 05b0 130000c3 66662e0f 1f840000 00000090  ....ff..........
 05c0 e8000000 008d8ed3 fdffff83 f90c7741  ..............wA
 05d0 ba010000 0048d3e2 81e22110 00004883  .....H....!...H.
 05e0 fa0119c9 81e1d4fe ffff81c1 b4140000  ................
 05f0 89c839cf 770fb823 00000081 ffab0d00  ..9.w..#........
 0600 00760d89 f84869c0 1f85eb51 48c1e825  .v...Hi....QH..%
 0610 c3b98813 0000b888 130000eb d50f1f00  ................
 0620 e8000000 00b80100 000081ff 3a020000  ............:...
 0630 740b31c0 81ff4502 00000f94 c0c36690  t.1...E.......f.
 0640 e8000000 00415648 8d460241 554989cd  .....AVH.F.AUI..
 0650 41544989 d431d255 4889fd48 89f7488d  ATI..1.UH..H..H.
 0660 76580fbe 084883c0 0131ca48 39f075f2  vX...H...1.H9.u.
 0670 885758be 5a000000 bac00c00 00e80000  .WX.Z...........
 0680 00008b75 00b92100 00004889 ef688813  ...u..!...H..h..
 0690 000041b9 02000000 ba090000 004989c6  ..A..........I..
 06a0 6a5ac1e6 0841b800 03000050 81ce0000  jZ...A.....P....
 06b0 0080e800 0000004c 89ee4c89 e7e80000  .......L..L.....
 06c0 00004c89 f7e80000 000031c0 4883c418  ..L.......1.H...
 06d0 5d415c41 5d415ec3 0f1f8400 00000000  ]A\A]A^.........
 06e0 e8000000 00488d47 02488d77 5831d20f  .....H.G.H.wX1..
 06f0 be084883 c00131ca 4839f075 f2885758  ..H...1.H9.u..WX
 0700 c3                                   .               
Contents of section .text.unlikely:
 0000 e8000000 00415648 c7c60000 00004155  .....AVH......AU
 0010 4989cdb9 5a000000 41544989 fc555348  I...Z...ATI..USH
 0020 81ecc000 0000498b 5c247865 488b0425  ......I.\$xeH..%
 0030 28000000 48898424 b8000000 31c0488d  (...H..$....1.H.
 0040 7c24044c 8d7310f3 aa488d7c 245eb95a  |$.L.s...H.|$^.Z
 0050 000000f3 aa4c89e7 e8000000 004c89f7  .....L.......L..
 0060 e8000000 00ba5a00 000031ff 488d6c24  ......Z...1.H.l$
 0070 0489eee8 00000000 48b8001f 00000034  ........H......4
 0080 030b66c7 44240cff 00488d54 2431c744  ..f.D$...H.T$1.D
 0090 240f0f00 00004889 44240448 89e8c640  $.....H.D$.H...@
 00a0 0f004883 c003c640 0dffc640 0e004839  ..H....@...@..H9
 00b0 d075eb48 c7c60000 00004c89 e7e80000  .u.H......L.....
 00c0 0000488b 7b08b9e8 03000048 89eebae8  ..H.{......H....
 00d0 030000e8 00000000 31c0b95a 00000048  ........1..Z...H
 00e0 89eff3aa bae80300 00b9e803 000066c7  ..............f.
 00f0 44246605 0048b800 1f000000 02030a48  D$f..H.........H
 0100 8d74245e 488b7b08 48894424 5ee80000  .t$^H.{.H.D$^...
 0110 00004c89 f7e80000 0000488b 8424b800  ..L.......H..$..
 0120 00006548 33042528 00000074 05e80000  ..eH3.%(...t....
 0130 00004881 c4c00000 004c89e8 5b5d415c  ..H......L..[]A\
 0140 415d415e c348c7c6 00000000 4889efe8  A]A^.H......H...
 0150 00000000 48c70424 00000000 48c7c200  ....H..$....H...
 0160 00000048 c7c60000 00004889 efe80000  ...H......H.....
 0170 0000488b 04244c89 e7b95a00 00004c89  ..H..$L...Z...L.
 0180 e64989dd 41894634 31c0f3aa c644240f  .I..A.F41....D$.
 0190 1fc64424 1502c644 24170141 8b463466  ..D$...D$..A.F4f
 01a0 c7442413 040d8844 24184183 7e30000f  .D$....D$.A.~0..
 01b0 95442419 498b7e08 31d2e800 000000e9  .D$.I.~.1.......
 01c0 00000000 48833c24 01751848 c7c20000  ....H.<$.u.H....
 01d0 000048c7 c6000000 004889ef e8000000  ..H......H......
 01e0 00eb8f48 c7c20000 000048c7 c6000000  ...H......H.....
 01f0 004889ef 48c70424 01000000 e8000000  .H..H..$........
 0200 00e96cff ffff48c7 c6000000 004c89e7  ..l...H......L..
 0210 4531ffe8 00000000 c7433000 000000e9  E1.......C0.....
 0220 00000000 48c7c600 0000004c 89e7e800  ....H......L....
 0230 000000e9 00000000 2d0f0200 0083f836  ........-......6
 0240 0f86bc00 000048c7 c2000000 004c89ef  ......H......L..
 0250 48c7c600 0000004d 8dac24d0 180000e8  H......M..$.....
 0260 00000000 48c7c600 0000004c 89efe800  ....H......L....
 0270 00000048 c7c60000 00004c89 efe80000  ...H......L.....
 0280 000048c7 c6000000 004c89ef e8000000  ..H......L......
 0290 0048c7c6 00000000 4c89efe8 00000000  .H......L.......
 02a0 48c7c600 0000004c 89efe800 00000048  H......L.......H
 02b0 c7c60000 00004c89 efe80000 00004c89  ......L.......L.
 02c0 ef48c7c6 00000000 e8000000 004989ac  .H...........I..
 02d0 24481900 004c89e7 e8000000 0085c074  $H...L.........t
 02e0 2e48c7c6 00000000 4c89efe8 00000000  .H......L.......
 02f0 4889efe8 00000000 b8edffff ffe90000  H...............
 0300 0000488b 14c50000 0000e93e ffffffbe  ..H........>....
 0310 2d000000 4c89e7e8 00000000 85c00f84  -...L...........
 0320 00000000 48c7c600 0000004c 89efe800  ....H......L....
 0330 00000048 89efe800 000000b8 edffffff  ...H............
 0340 e9000000 00                          .....           
Contents of section .init.text:
 0000 e8000000 0048c7c2 00000000 48c7c600  .....H......H...
 0010 00000048 c7c70000 0000e900 000000    ...H........... 
Contents of section .exit.text:
 0000 48c7c700 000000e9 00000000           H...........    
Contents of section .rodata:
 0000 00000000 00000000 00000000 00000000  ................
 0010 00000000 00000000 00000000 00000000  ................
 0020 00000000 00000000 00000000 00000000  ................
 0030 00000000 00000000 00000000 00000000  ................
 0040 00000000 00000000 00000000 00000000  ................
 0050 00000000 00000000 00000000 00000000  ................
 0060 00000000 00000000 00000000 00000000  ................
 0070 00000000 00000000 00000000 00000000  ................
 0080 00000000 00000000 00000000 00000000  ................
 0090 00000000 00000000 00000000 00000000  ................
 00a0 00000000 00000000 00000000 00000000  ................
 00b0 00000000 00000000 00000000 00000000  ................
 00c0 00000000 00000000 00000000 00000000  ................
 00d0 00000000 00000000 00000000 00000000  ................
 00e0 00000000 00000000 00000000 00000000  ................
 00f0 00000000 00000000 00000000 00000000  ................
 0100 00000000 00000000 00000000 00000000  ................
 0110 00000000 00000000 00000000 00000000  ................
 0120 00000000 00000000 00000000 00000000  ................
 0130 00000000 00000000 00000000 00000000  ................
 0140 00000000 00000000 00000000 00000000  ................
 0150 00000000 00000000 00000000 00000000  ................
 0160 00000000 00000000 00000000 00000000  ................
 0170 00000000 00000000 00000000 00000000  ................
 0180 00000000 00000000 00000000 00000000  ................
 0190 00000000 00000000 00000000 00000000  ................
 01a0 00000000 00000000 00000000 00000000  ................
 01b0 00000000 00000000 00000000 00000000  ................
 01c0 03000000 32150000 24020000 00000000  ....2...$.......
 01d0 00000000 00000000 03000000 32150000  ............2...
 01e0 33020000 00000000 00000000 00000000  3...............
 01f0 03000000 32150000 3b020000 00000000  ....2...;.......
 0200 00000000 00000000 03000000 32150000  ............2...
 0210 40020000 00000000 00000000 00000000  @...............
 0220 03000000 32150000 3a020000 00000000  ....2...:.......
 0230 00000000 00000000 03000000 32150000  ............2...
 0240 34020000 00000000 00000000 00000000  4...............
 0250 03000000 32150000 45020000 00000000  ....2...E.......
 0260 00000000 00000000 03000000 32150000  ............2...
 0270 2d020000 00000000 00000000 00000000  -...............
 0280 03000000 32150000 32020000 00000000  ....2...2.......
 0290 00000000 00000000 03000000 32150000  ............2...
 02a0 39020000 00000000 00000000 00000000  9...............
 02b0 03000000 32150000 2f020000 00000000  ....2.../.......
 02c0 00000000 00000000 03000000 32150000  ............2...
 02d0 25020000 00000000 00000000 00000000  %...............
 02e0 03000000 32150000 25020000 00000000  ....2...%.......
 02f0 00000000 00000000 03000000 32150000  ............2...
 0300 0f020000 00000000 00000000 00000000  ................
 0310 00000000 00000000 00000000 00000000  ................
 0320 00000000 00000000                    ........        
Contents of section __mcount_loc:
 0000 00000000 00000000 00000000 00000000  ................
 0010 00000000 00000000 00000000 00000000  ................
 0020 00000000 00000000 00000000 00000000  ................
 0030 00000000 00000000 00000000 00000000  ................
 0040 00000000 00000000 00000000 00000000  ................
 0050 00000000 00000000 00000000 00000000  ................
 0060 00000000 00000000 00000000 00000000  ................
 0070 00000000 00000000 00000000 00000000  ................
 0080 00000000 00000000                    ........        
Contents of section .rodata.str1.8:
 0000 52617a65 725f6c61 70746f70 5f636f6e  Razer_laptop_con
 0010 74726f6c 3a20556e 6c6f6164 65640a00  trol: Unloaded..
 0020 55736572 20656e74 65726564 20616e20  User entered an 
 0030 696e7661 6c696420 696e7075 7420666f  invalid input fo
 0040 7220706f 77657220 6d6f6465 2e204465  r power mode. De
 0050 6661756c 74696e67 20746f20 62616c61  faulting to bala
 0060 6e636564 00000000 43726561 746f7220  nced....Creator 
 0070 6d6f6465 206e6f74 20616c6c 6f776564  mode not allowed
 0080 2c206661 6c6c696e 67206261 636b2074  , falling back t
 0090 6f207065 72666f72 6d616e63 65000000  o performance...
 00a0 55736572 20656e74 65726564 20616e20  User entered an 
 00b0 696e7661 6c696420 696e7075 7420666f  invalid input fo
 00c0 72206661 6e207270 6d2e2044 65666175  r fan rpm. Defau
 00d0 6c74696e 6720746f 20617574 6f000000  lting to auto...
 00e0 52657175 65737469 6e67204d 414e5541  Requesting MANUA
 00f0 4c206661 6e206174 20256420 52504d00  L fan at %d RPM.
 0100 52617a65 72206c61 70746f70 20537973  Razer laptop Sys
 0110 74656d20 636f6e74 726f6c20 64726976  tem control driv
 0120 657200                               er.             
Contents of section .rodata.str1.1:
 0000 4b657962 6f617264 20676f69 6e672074  Keyboard going t
 0010 6f205761 76650a00 53656e64 696e670a  o Wave..Sending.
 0020 00456e61 626c696e 67204261 6c616e63  .Enabling Balanc
 0030 65642070 6f776572 206d6f64 65002573  ed power mode.%s
 0040 00456e61 626c696e 67204761 6d696e67  .Enabling Gaming
 0050 20706f77 6572206d 6f646500 52657175   power mode.Requ
 0060 65737469 6e672041 55544f20 46616e00  esting AUTO Fan.
 0070 554e4b4e 4f574e00 26646576 2d3e6c6f  UNKNOWN.&dev->lo
 0080 636b0046 6f756e64 20737570 706f7274  ck.Found support
 0090 65642064 65766963 653a2025 730a0046  ed device: %s..F
 00a0 61696c65 6420746f 20706172 73652064  ailed to parse d
 00b0 65766963 65210a00 4661696c 65642074  evice!..Failed t
 00c0 6f207374 61727420 64657669 6365210a  o start device!.
 00d0 00256420 52504d0a 0072617a 6572636f  .%d RPM..razerco
 00e0 6e74726f 6c00426c 61646520 51484400  ntrol.Blade QHD.
 00f0 426c6164 65207072 6f203230 31360042  Blade pro 2016.B
 0100 6c616465 20313520 6c617465 20323031  lade 15 late 201
 0110 3600426c 61646520 70656f20 32303137  6.Blade peo 2017
 0120 00426c61 64652053 7465616c 7468206d  .Blade Stealth m
 0130 69642032 30313700 426c6164 65207072  id 2017.Blade pr
 0140 6f203230 31382046 48440042 6c616465  o 2018 FHD.Blade
 0150 20537465 616c7468 206c6174 65203230   Stealth late 20
 0160 31370042 6c616465 20313520 32303138  17.Blade 15 2018
 0170 20416476 616e6365 6400426c 61646520   Advanced.Blade 
 0180 70726f20 32303139 00426c61 64652032  pro 2019.Blade 2
 0190 30313920 53746561 6c746800 426c6164  019 Stealth.Blad
 01a0 65203135 20323031 39204164 76616e63  e 15 2019 Advanc
 01b0 65640042 6c616465 20313520 32303138  ed.Blade 15 2018
 01c0 20426173 6500426c 61646520 31352032   Base.Blade 15 2
 01d0 30313820 4d657263 75727920 45646974  018 Mercury Edit
 01e0 696f6e00 426c6164 65203135 20323031  ion.Blade 15 201
 01f0 39204d65 72637572 79204564 6974696f  9 Mercury Editio
 0200 6e007374 61746963 5f6d6f64 65006272  n.static_mode.br
 0210 65617468 5f6d6f64 65007265 61637469  eath_mode.reacti
 0220 76655f6d 6f646500 73706563 7472756d  ve_mode.spectrum
 0230 5f6d6f64 65007761 76655f6d 6f646500  _mode.wave_mode.
 0240 706f7765 725f6d6f 64650066 616e5f72  power_mode.fan_r
 0250 706d00                               pm.             
Contents of section .modinfo:
 0000 76657273 696f6e3d 302e302e 31006c69  version=0.0.1.li
 0010 63656e73 653d4750 4c006465 73637269  cense=GPL.descri
 0020 7074696f 6e3d5261 7a657220 73797374  ption=Razer syst
 0030 656d2063 6f6e7472 6f6c2064 72697665  em control drive
 0040 7220666f 72206c61 70746f70 73006175  r for laptops.au
 0050 74686f72 3d417368 636f6e20 4d6f6873  thor=Ashcon Mohs
 0060 656e696e 69610073 72637665 7273696f  eninia.srcversio
 0070 6e3d3838 35354646 44343345 34464641  n=8855FFD43E4FFA
 0080 41413843 38313336 3000616c 6961733d  AA8C81360.alias=
 0090 6869643a 62303030 33672a76 30303030  hid:b0003g*v0000
 00a0 31353332 70303030 30303230 4600616c  1532p0000020F.al
 00b0 6961733d 6869643a 62303030 33672a76  ias=hid:b0003g*v
 00c0 30303030 31353332 70303030 30303232  00001532p0000022
 00d0 3500616c 6961733d 6869643a 62303030  5.alias=hid:b000
 00e0 33672a76 30303030 31353332 70303030  3g*v00001532p000
 00f0 30303232 3500616c 6961733d 6869643a  00225.alias=hid:
 0100 62303030 33672a76 30303030 31353332  b0003g*v00001532
 0110 70303030 30303232 4600616c 6961733d  p0000022F.alias=
 0120 6869643a 62303030 33672a76 30303030  hid:b0003g*v0000
 0130 31353332 70303030 30303233 3900616c  1532p00000239.al
 0140 6961733d 6869643a 62303030 33672a76  ias=hid:b0003g*v
 0150 30303030 31353332 70303030 30303233  00001532p0000023
 0160 3200616c 6961733d 6869643a 62303030  2.alias=hid:b000
 0170 33672a76 30303030 31353332 70303030  3g*v00001532p000
 0180 30303232 4400616c 6961733d 6869643a  0022D.alias=hid:
 0190 62303030 33672a76 30303030 31353332  b0003g*v00001532
 01a0 70303030 30303234 3500616c 6961733d  p00000245.alias=
 01b0 6869643a 62303030 33672a76 30303030  hid:b0003g*v0000
 01c0 31353332 70303030 30303233 3400616c  1532p00000234.al
 01d0 6961733d 6869643a 62303030 33672a76  ias=hid:b0003g*v
 01e0 30303030 31353332 70303030 30303233  00001532p0000023
 01f0 4100616c 6961733d 6869643a 62303030  A.alias=hid:b000
 0200 33672a76 30303030 31353332 70303030  3g*v00001532p000
 0210 30303234 3000616c 6961733d 6869643a  00240.alias=hid:
 0220 62303030 33672a76 30303030 31353332  b0003g*v00001532
 0230 70303030 30303233 4200616c 6961733d  p0000023B.alias=
 0240 6869643a 62303030 33672a76 30303030  hid:b0003g*v0000
 0250 31353332 70303030 30303233 3300616c  1532p00000233.al
 0260 6961733d 6869643a 62303030 33672a76  ias=hid:b0003g*v
 0270 30303030 31353332 70303030 30303232  00001532p0000022
 0280 34006465 70656e64 733d6869 64007265  4.depends=hid.re
 0290 74706f6c 696e653d 59006e61 6d653d72  tpoline=Y.name=r
 02a0 617a6572 636f6e74 726f6c00 7665726d  azercontrol.verm
 02b0 61676963 3d352e34 2e362d61 72636833  agic=5.4.6-arch3
 02c0 2d312053 4d502070 7265656d 7074206d  -1 SMP preempt m
 02d0 6f645f75 6e6c6f61 642000             od_unload .     
Contents of section .orc_unwind_ip:
 0000 00000000 00000000 00000000 00000000  ................
 0010 00000000 00000000 00000000 00000000  ................
 0020 00000000 00000000 00000000 00000000  ................
 0030 00000000 00000000 00000000 00000000  ................
 0040 00000000 00000000 00000000 00000000  ................
 0050 00000000 00000000 00000000 00000000  ................
 0060 00000000 00000000 00000000 00000000  ................
 0070 00000000 00000000 00000000 00000000  ................
 0080 00000000 00000000 00000000 00000000  ................
 0090 00000000 00000000 00000000 00000000  ................
 00a0 00000000 00000000 00000000 00000000  ................
 00b0 00000000 00000000 00000000 00000000  ................
 00c0 00000000 00000000 00000000 00000000  ................
 00d0 00000000 00000000 00000000 00000000  ................
 00e0 00000000 00000000 00000000 00000000  ................
 00f0 00000000 00000000 00000000 00000000  ................
 0100 00000000 00000000 00000000 00000000  ................
 0110 00000000 00000000 00000000 00000000  ................
 0120 00000000 00000000 00000000 00000000  ................
 0130 00000000 00000000 00000000 00000000  ................
 0140 00000000 00000000 00000000 00000000  ................
 0150 00000000 00000000 00000000 00000000  ................
 0160 00000000 00000000 00000000 00000000  ................
 0170 00000000 00000000 00000000 00000000  ................
 0180 00000000 00000000 00000000 00000000  ................
 0190 00000000 00000000 00000000 00000000  ................
 01a0 00000000 00000000 00000000           ............    
Contents of section .orc_unwind:
 0000 08000000 05000000 00000000 08000000  ................
 0010 05001000 00000500 18000000 05002000  .............. .
 0020 00000500 2800d8ff 15002000 00000500  ....(..... .....
 0030 18000000 05001000 00000500 08000000  ................
 0040 05000000 00000000 08000000 05001000  ................
 0050 00000500 18000000 05002000 00000500  .......... .....
 0060 28000000 05003000 d0ff1500 3800d0ff  (.....0.....8...
 0070 1500a800 d0ff1500 3800d0ff 15003000  ........8.....0.
 0080 d0ff1500 28000000 05002000 00000500  ....(..... .....
 0090 18000000 05001000 00000500 08000000  ................
 00a0 0500a800 d0ff1500 08000000 05001000  ................
 00b0 00000500 18000000 05002000 00000500  .......... .....
 00c0 28000000 05003000 d0ff1500 3800d0ff  (.....0.....8...
 00d0 1500b000 d0ff1500 3800d0ff 15003000  ........8.....0.
 00e0 d0ff1500 28000000 05002000 00000500  ....(..... .....
 00f0 18000000 05001000 00000500 08000000  ................
 0100 0500b000 d0ff1500 00000000 00000800  ................
 0110 00000500 10000000 05001800 00000500  ................
 0120 2000e0ff 15002800 e0ff1500 2000e0ff   .....(..... ...
 0130 15001800 00000500 10000000 05000800  ................
 0140 00000500 2800e0ff 15000000 00000000  ....(...........
 0150 08000000 05000000 00000000 08000000  ................
 0160 05000000 00000000 08000000 05000000  ................
 0170 00000000 08000000 05000000 00000000  ................
 0180 08000000 05001000 00000500 18000000  ................
 0190 05002000 00000500 2800d8ff 15003000  .. .....(.....0.
 01a0 d8ff1500 f000d8ff 15003000 d8ff1500  ..........0.....
 01b0 2800d8ff 15002000 00000500 18000000  (..... .........
 01c0 05001000 00000500 08000000 0500a800  ................
 01d0 d0ff1500 b000d0ff 15002800 e0ff1500  ..........(.....
 01e0 00000000 00000800 00000500 00000000  ................
 01f0 00000800 00000500 00000000 00000800  ................
 0200 00000500 00000000 00000800 00000500  ................
 0210 00000000 00000800 00000500 00000000  ................
 0220 00000800 00000500 10000000 05001800  ................
 0230 00000500 20000000 05002800 d8ff1500  .... .....(.....
 0240 3000d8ff 15003800 d8ff1500 4000d8ff  0.....8.....@...
 0250 15002800 d8ff1500 20000000 05001800  ..(..... .......
 0260 00000500 10000000 05000800 00000500  ................
 0270 00000000 00000800 00000500 00000000  ................
 0280 0000                                 ..              
Contents of section .data:
 0000 00000000 00000000 00000000 00000000  ................
 0010 00000000 00000000 00000000 00000000  ................
 0020 00000000 00000000 00000000 00000000  ................
 0030 00000000 00000000 00000000 00000000  ................
 0040 00000000 00000000 00000000 00000000  ................
 0050 00000000 00000000 00000000 00000000  ................
 0060 00000000 00000000 00000000 00000000  ................
 0070 00000000 00000000 00000000 00000000  ................
 0080 00000000 00000000 00000000 00000000  ................
 0090 00000000 00000000 00000000 00000000  ................
 00a0 00000000 00000000 00000000 00000000  ................
 00b0 00000000 00000000 00000000 00000000  ................
 00c0 00000000 00000000 00000000 00000000  ................
 00d0 00000000 00000000 00000000 00000000  ................
 00e0 00000000 00000000 00000000 00000000  ................
 00f0 00000000 00000000 00000000 00000000  ................
 0100 00000000 00000000 00000000 00000000  ................
 0110 00000000 00000000 00000000 00000000  ................
 0120 00000000 00000000 00000000 00000000  ................
 0130 00000000 00000000 00000000 00000000  ................
 0140 00000000 00000000 80000000 00000000  ................
 0150 00000000 00000000 00000000 00000000  ................
 0160 00000000 00000000 80000000 00000000  ................
 0170 00000000 00000000 00000000 00000000  ................
 0180 00000000 00000000 80000000 00000000  ................
 0190 00000000 00000000 00000000 00000000  ................
 01a0 00000000 00000000 80000000 00000000  ................
 01b0 00000000 00000000 00000000 00000000  ................
 01c0 00000000 00000000 80000000 00000000  ................
 01d0 00000000 00000000 00000000 00000000  ................
 01e0 00000000 00000000 a4010000 00000000  ................
 01f0 00000000 00000000 00000000 00000000  ................
 0200 00000000 00000000 a4010000 00000000  ................
 0210 00000000 00000000 00000000 00000000  ................
Contents of section .gnu.linkonce.this_module:
 0000 00000000 00000000 00000000 00000000  ................
 0010 00000000 00000000 72617a65 72636f6e  ........razercon
 0020 74726f6c 00000000 00000000 00000000  trol............
 0030 00000000 00000000 00000000 00000000  ................
 0040 00000000 00000000 00000000 00000000  ................
 0050 00000000 00000000 00000000 00000000  ................
 0060 00000000 00000000 00000000 00000000  ................
 0070 00000000 00000000 00000000 00000000  ................
 0080 00000000 00000000 00000000 00000000  ................
 0090 00000000 00000000 00000000 00000000  ................
 00a0 00000000 00000000 00000000 00000000  ................
 00b0 00000000 00000000 00000000 00000000  ................
 00c0 00000000 00000000 00000000 00000000  ................
 00d0 00000000 00000000 00000000 00000000  ................
 00e0 00000000 00000000 00000000 00000000  ................
 00f0 00000000 00000000 00000000 00000000  ................
 0100 00000000 00000000 00000000 00000000  ................
 0110 00000000 00000000 00000000 00000000  ................
 0120 00000000 00000000 00000000 00000000  ................
 0130 00000000 00000000 00000000 00000000  ................
 0140 00000000 00000000 00000000 00000000  ................
 0150 00000000 00000000 00000000 00000000  ................
 0160 00000000 00000000 00000000 00000000  ................
 0170 00000000 00000000 00000000 00000000  ................
 0180 00000000 00000000 00000000 00000000  ................
 0190 00000000 00000000 00000000 00000000  ................
 01a0 00000000 00000000 00000000 00000000  ................
 01b0 00000000 00000000 00000000 00000000  ................
 01c0 00000000 00000000 00000000 00000000  ................
 01d0 00000000 00000000 00000000 00000000  ................
 01e0 00000000 00000000 00000000 00000000  ................
 01f0 00000000 00000000 00000000 00000000  ................
 0200 00000000 00000000 00000000 00000000  ................
 0210 00000000 00000000 00000000 00000000  ................
 0220 00000000 00000000 00000000 00000000  ................
 0230 00000000 00000000 00000000 00000000  ................
 0240 00000000 00000000 00000000 00000000  ................
 0250 00000000 00000000 00000000 00000000  ................
 0260 00000000 00000000 00000000 00000000  ................
 0270 00000000 00000000 00000000 00000000  ................
 0280 00000000 00000000 00000000 00000000  ................
 0290 00000000 00000000 00000000 00000000  ................
 02a0 00000000 00000000 00000000 00000000  ................
 02b0 00000000 00000000 00000000 00000000  ................
 02c0 00000000 00000000 00000000 00000000  ................
 02d0 00000000 00000000 00000000 00000000  ................
 02e0 00000000 00000000 00000000 00000000  ................
 02f0 00000000 00000000 00000000 00000000  ................
 0300 00000000 00000000 00000000 00000000  ................
 0310 00000000 00000000 00000000 00000000  ................
 0320 00000000 00000000 00000000 00000000  ................
 0330 00000000 00000000 00000000 00000000  ................
 0340 00000000 00000000 00000000 00000000  ................
 0350 00000000 00000000 00000000 00000000  ................
 0360 00000000 00000000 00000000 00000000  ................
 0370 00000000 00000000 00000000 00000000  ................
Contents of section .comment:
 0000 00474343 3a202847 4e552920 392e322e  .GCC: (GNU) 9.2.
 0010 30000047 43433a20 28474e55 2920392e  0..GCC: (GNU) 9.
 0020 322e3000 00474343 3a202847 4e552920  2.0..GCC: (GNU) 
 0030 392e322e 30000047 43433a20 28474e55  9.2.0..GCC: (GNU
 0040 2920392e 322e3000                    ) 9.2.0.        

Disassembly of section .text:

0000000000000000 <spectrum_mode_store>:
   0:	e8 00 00 00 00       	callq  5 <spectrum_mode_store+0x5>
   5:	48 89 c8             	mov    %rcx,%rax
   8:	c3                   	retq   
   9:	0f 1f 80 00 00 00 00 	nopl   0x0(%rax)

0000000000000010 <razer_laptop_remove>:
  10:	e8 00 00 00 00       	callq  15 <razer_laptop_remove+0x5>
  15:	41 56                	push   %r14
  17:	48 c7 c6 00 00 00 00 	mov    $0x0,%rsi
  1e:	41 55                	push   %r13
  20:	41 54                	push   %r12
  22:	4c 8d a7 d0 18 00 00 	lea    0x18d0(%rdi),%r12
  29:	55                   	push   %rbp
  2a:	48 89 fd             	mov    %rdi,%rbp
  2d:	4c 8b af 10 19 00 00 	mov    0x1910(%rdi),%r13
  34:	4c 8b b7 48 19 00 00 	mov    0x1948(%rdi),%r14
  3b:	4c 89 e7             	mov    %r12,%rdi
  3e:	e8 00 00 00 00       	callq  43 <razer_laptop_remove+0x33>
  43:	4c 89 e7             	mov    %r12,%rdi
  46:	48 c7 c6 00 00 00 00 	mov    $0x0,%rsi
  4d:	e8 00 00 00 00       	callq  52 <razer_laptop_remove+0x42>
  52:	4c 89 e7             	mov    %r12,%rdi
  55:	48 c7 c6 00 00 00 00 	mov    $0x0,%rsi
  5c:	e8 00 00 00 00       	callq  61 <razer_laptop_remove+0x51>
  61:	4c 89 e7             	mov    %r12,%rdi
  64:	48 c7 c6 00 00 00 00 	mov    $0x0,%rsi
  6b:	e8 00 00 00 00       	callq  70 <razer_laptop_remove+0x60>
  70:	4c 89 e7             	mov    %r12,%rdi
  73:	48 c7 c6 00 00 00 00 	mov    $0x0,%rsi
  7a:	e8 00 00 00 00       	callq  7f <razer_laptop_remove+0x6f>
  7f:	48 c7 c6 00 00 00 00 	mov    $0x0,%rsi
  86:	4c 89 e7             	mov    %r12,%rdi
  89:	e8 00 00 00 00       	callq  8e <razer_laptop_remove+0x7e>
  8e:	48 89 ef             	mov    %rbp,%rdi
  91:	e8 00 00 00 00       	callq  96 <razer_laptop_remove+0x86>
  96:	4c 89 f7             	mov    %r14,%rdi
  99:	e8 00 00 00 00       	callq  9e <razer_laptop_remove+0x8e>
  9e:	4c 89 ef             	mov    %r13,%rdi
  a1:	5d                   	pop    %rbp
  a2:	48 c7 c6 00 00 00 00 	mov    $0x0,%rsi
  a9:	41 5c                	pop    %r12
  ab:	41 5d                	pop    %r13
  ad:	41 5e                	pop    %r14
  af:	e9 00 00 00 00       	jmpq   b4 <razer_laptop_remove+0xa4>
  b4:	66 66 2e 0f 1f 84 00 	data16 nopw %cs:0x0(%rax,%rax,1)
  bb:	00 00 00 00 
  bf:	90                   	nop

00000000000000c0 <power_mode_store>:
  c0:	e8 00 00 00 00       	callq  c5 <power_mode_store+0x5>
  c5:	41 57                	push   %r15
  c7:	41 56                	push   %r14
  c9:	41 55                	push   %r13
  cb:	49 89 d5             	mov    %rdx,%r13
  ce:	41 54                	push   %r12
  d0:	55                   	push   %rbp
  d1:	48 89 fd             	mov    %rdi,%rbp
  d4:	53                   	push   %rbx
  d5:	48 89 cb             	mov    %rcx,%rbx
  d8:	48 83 ec 70          	sub    $0x70,%rsp
  dc:	65 48 8b 04 25 28 00 	mov    %gs:0x28,%rax
  e3:	00 00 
  e5:	48 89 44 24 68       	mov    %rax,0x68(%rsp)
  ea:	31 c0                	xor    %eax,%eax
  ec:	4c 8d 64 24 0e       	lea    0xe(%rsp),%r12
  f1:	48 8d 7c 24 10       	lea    0x10(%rsp),%rdi
  f6:	48 c7 04 24 00 00 00 	movq   $0x0,(%rsp)
  fd:	00 
  fe:	48 c7 44 24 0e 00 00 	movq   $0x0,0xe(%rsp)
 105:	00 00 
 107:	4c 89 e1             	mov    %r12,%rcx
 10a:	48 c7 44 24 60 00 00 	movq   $0x0,0x60(%rsp)
 111:	00 00 
 113:	48 29 f9             	sub    %rdi,%rcx
 116:	83 c1 5a             	add    $0x5a,%ecx
 119:	c1 e9 03             	shr    $0x3,%ecx
 11c:	f3 48 ab             	rep stos %rax,%es:(%rdi)
 11f:	4c 8b 75 78          	mov    0x78(%rbp),%r14
 123:	4d 8d 7e 10          	lea    0x10(%r14),%r15
 127:	4c 89 ff             	mov    %r15,%rdi
 12a:	e8 00 00 00 00       	callq  12f <power_mode_store+0x6f>
 12f:	be 0a 00 00 00       	mov    $0xa,%esi
 134:	4c 89 ef             	mov    %r13,%rdi
 137:	48 89 e2             	mov    %rsp,%rdx
 13a:	e8 00 00 00 00       	callq  13f <power_mode_store+0x7f>
 13f:	85 c0                	test   %eax,%eax
 141:	0f 85 00 00 00 00    	jne    147 <power_mode_store+0x87>
 147:	48 8b 04 24          	mov    (%rsp),%rax
 14b:	48 83 f8 02          	cmp    $0x2,%rax
 14f:	77 29                	ja     17a <power_mode_store+0xba>
 151:	48 85 c0             	test   %rax,%rax
 154:	0f 84 00 00 00 00    	je     15a <power_mode_store+0x9a>
 15a:	48 83 f8 02          	cmp    $0x2,%rax
 15e:	0f 85 00 00 00 00    	jne    164 <power_mode_store+0xa4>
 164:	41 8b 3e             	mov    (%r14),%edi
 167:	e8 00 00 00 00       	callq  16c <power_mode_store+0xac>
 16c:	83 f8 01             	cmp    $0x1,%eax
 16f:	0f 85 00 00 00 00    	jne    175 <power_mode_store+0xb5>
 175:	e9 00 00 00 00       	jmpq   17a <power_mode_store+0xba>
 17a:	49 c7 c5 ea ff ff ff 	mov    $0xffffffffffffffea,%r13
 181:	4c 89 ff             	mov    %r15,%rdi
 184:	e8 00 00 00 00       	callq  189 <power_mode_store+0xc9>
 189:	48 8b 44 24 68       	mov    0x68(%rsp),%rax
 18e:	65 48 33 04 25 28 00 	xor    %gs:0x28,%rax
 195:	00 00 
 197:	75 12                	jne    1ab <power_mode_store+0xeb>
 199:	48 83 c4 70          	add    $0x70,%rsp
 19d:	4c 89 e8             	mov    %r13,%rax
 1a0:	5b                   	pop    %rbx
 1a1:	5d                   	pop    %rbp
 1a2:	41 5c                	pop    %r12
 1a4:	41 5d                	pop    %r13
 1a6:	41 5e                	pop    %r14
 1a8:	41 5f                	pop    %r15
 1aa:	c3                   	retq   
 1ab:	e8 00 00 00 00       	callq  1b0 <fan_rpm_store>

00000000000001b0 <fan_rpm_store>:
 1b0:	e8 00 00 00 00       	callq  1b5 <fan_rpm_store+0x5>
 1b5:	41 57                	push   %r15
 1b7:	49 89 d7             	mov    %rdx,%r15
 1ba:	41 56                	push   %r14
 1bc:	41 55                	push   %r13
 1be:	49 89 cd             	mov    %rcx,%r13
 1c1:	b9 0b 00 00 00       	mov    $0xb,%ecx
 1c6:	41 54                	push   %r12
 1c8:	49 89 fc             	mov    %rdi,%r12
 1cb:	55                   	push   %rbp
 1cc:	53                   	push   %rbx
 1cd:	48 83 ec 78          	sub    $0x78,%rsp
 1d1:	65 48 8b 04 25 28 00 	mov    %gs:0x28,%rax
 1d8:	00 00 
 1da:	48 89 44 24 70       	mov    %rax,0x70(%rsp)
 1df:	31 c0                	xor    %eax,%eax
 1e1:	48 8d 7c 24 18       	lea    0x18(%rsp),%rdi
 1e6:	48 c7 44 24 08 00 00 	movq   $0x0,0x8(%rsp)
 1ed:	00 00 
 1ef:	48 c7 44 24 16 00 00 	movq   $0x0,0x16(%rsp)
 1f6:	00 00 
 1f8:	48 c7 44 24 68 00 00 	movq   $0x0,0x68(%rsp)
 1ff:	00 00 
 201:	f3 48 ab             	rep stos %rax,%es:(%rdi)
 204:	49 8b 5c 24 78       	mov    0x78(%r12),%rbx
 209:	4c 8d 73 10          	lea    0x10(%rbx),%r14
 20d:	4c 89 f7             	mov    %r14,%rdi
 210:	e8 00 00 00 00       	callq  215 <fan_rpm_store+0x65>
 215:	31 c0                	xor    %eax,%eax
 217:	be 0a 00 00 00       	mov    $0xa,%esi
 21c:	48 8d 6c 24 16       	lea    0x16(%rsp),%rbp
 221:	48 8d 7c 24 18       	lea    0x18(%rsp),%rdi
 226:	48 c7 44 24 16 00 00 	movq   $0x0,0x16(%rsp)
 22d:	00 00 
 22f:	48 89 e9             	mov    %rbp,%rcx
 232:	48 8d 54 24 08       	lea    0x8(%rsp),%rdx
 237:	48 c7 44 24 68 00 00 	movq   $0x0,0x68(%rsp)
 23e:	00 00 
 240:	48 29 f9             	sub    %rdi,%rcx
 243:	83 c1 5a             	add    $0x5a,%ecx
 246:	c1 e9 03             	shr    $0x3,%ecx
 249:	f3 48 ab             	rep stos %rax,%es:(%rdi)
 24c:	4c 89 ff             	mov    %r15,%rdi
 24f:	e8 00 00 00 00       	callq  254 <fan_rpm_store+0xa4>
 254:	85 c0                	test   %eax,%eax
 256:	0f 85 00 00 00 00    	jne    25c <fan_rpm_store+0xac>
 25c:	48 8b 7c 24 08       	mov    0x8(%rsp),%rdi
 261:	48 85 ff             	test   %rdi,%rdi
 264:	0f 84 00 00 00 00    	je     26a <fan_rpm_store+0xba>
 26a:	8b 33                	mov    (%rbx),%esi
 26c:	e8 00 00 00 00       	callq  271 <fan_rpm_store+0xc1>
 271:	48 c7 c6 00 00 00 00 	mov    $0x0,%rsi
 278:	4c 89 e7             	mov    %r12,%rdi
 27b:	41 89 c7             	mov    %eax,%r15d
 27e:	0f b6 c0             	movzbl %al,%eax
 281:	6b c0 64             	imul   $0x64,%eax,%eax
 284:	89 c2                	mov    %eax,%edx
 286:	89 44 24 04          	mov    %eax,0x4(%rsp)
 28a:	e8 00 00 00 00       	callq  28f <fan_rpm_store+0xdf>
 28f:	8b 44 24 04          	mov    0x4(%rsp),%eax
 293:	b9 d8 0e 00 00       	mov    $0xed8,%ecx
 298:	48 89 ee             	mov    %rbp,%rsi
 29b:	c7 44 24 1e 00 01 00 	movl   $0x100,0x1e(%rsp)
 2a2:	00 
 2a3:	48 8b 7b 08          	mov    0x8(%rbx),%rdi
 2a7:	ba 48 0d 00 00       	mov    $0xd48,%edx
 2ac:	89 43 30             	mov    %eax,0x30(%rbx)
 2af:	48 b8 00 1f 00 00 00 	movabs $0x820d040000001f00,%rax
 2b6:	04 0d 82 
 2b9:	48 89 44 24 16       	mov    %rax,0x16(%rsp)
 2be:	e8 00 00 00 00       	callq  2c3 <fan_rpm_store+0x113>
 2c3:	b9 c8 20 03 00       	mov    $0x320c8,%ecx
 2c8:	48 89 ee             	mov    %rbp,%rsi
 2cb:	c6 44 24 1f 01       	movb   $0x1,0x1f(%rsp)
 2d0:	8b 43 34             	mov    0x34(%rbx),%eax
 2d3:	c7 44 24 1b 04 0d 02 	movl   $0x20d04,0x1b(%rsp)
 2da:	00 
 2db:	88 44 24 20          	mov    %al,0x20(%rsp)
 2df:	8b 53 30             	mov    0x30(%rbx),%edx
 2e2:	85 d2                	test   %edx,%edx
 2e4:	ba e0 1c 03 00       	mov    $0x31ce0,%edx
 2e9:	0f 95 44 24 21       	setne  0x21(%rsp)
 2ee:	48 8b 7b 08          	mov    0x8(%rbx),%rdi
 2f2:	e8 00 00 00 00       	callq  2f7 <fan_rpm_store+0x147>
 2f7:	b9 d8 0e 00 00       	mov    $0xed8,%ecx
 2fc:	ba 48 0d 00 00       	mov    $0xd48,%edx
 301:	48 89 ee             	mov    %rbp,%rsi
 304:	c7 44 24 1b 03 0d 01 	movl   $0x10d03,0x1b(%rsp)
 30b:	00 
 30c:	c6 44 24 1f 01       	movb   $0x1,0x1f(%rsp)
 311:	44 88 7c 24 20       	mov    %r15b,0x20(%rsp)
 316:	c6 44 24 21 00       	movb   $0x0,0x21(%rsp)
 31b:	48 8b 7b 08          	mov    0x8(%rbx),%rdi
 31f:	e8 00 00 00 00       	callq  324 <fan_rpm_store+0x174>
 324:	b9 02 00 00 00       	mov    $0x2,%ecx
 329:	ba 48 0d 00 00       	mov    $0xd48,%edx
 32e:	48 89 ee             	mov    %rbp,%rsi
 331:	66 89 4c 24 1f       	mov    %cx,0x1f(%rsp)
 336:	b9 d8 0e 00 00       	mov    $0xed8,%ecx
 33b:	c7 44 24 1b 04 0d 82 	movl   $0x820d04,0x1b(%rsp)
 342:	00 
 343:	c6 44 24 21 00       	movb   $0x0,0x21(%rsp)
 348:	48 8b 7b 08          	mov    0x8(%rbx),%rdi
 34c:	e8 00 00 00 00       	callq  351 <fan_rpm_store+0x1a1>
 351:	c6 44 24 1f 02       	movb   $0x2,0x1f(%rsp)
 356:	8b 43 34             	mov    0x34(%rbx),%eax
 359:	b9 c8 20 03 00       	mov    $0x320c8,%ecx
 35e:	48 89 ee             	mov    %rbp,%rsi
 361:	c7 44 24 1b 04 0d 02 	movl   $0x20d04,0x1b(%rsp)
 368:	00 
 369:	ba e0 1c 03 00       	mov    $0x31ce0,%edx
 36e:	88 44 24 20          	mov    %al,0x20(%rsp)
 372:	8b 43 30             	mov    0x30(%rbx),%eax
 375:	85 c0                	test   %eax,%eax
 377:	0f 95 44 24 21       	setne  0x21(%rsp)
 37c:	48 8b 7b 08          	mov    0x8(%rbx),%rdi
 380:	e8 00 00 00 00       	callq  385 <fan_rpm_store+0x1d5>
 385:	48 83 7c 24 08 00    	cmpq   $0x0,0x8(%rsp)
 38b:	75 2a                	jne    3b7 <fan_rpm_store+0x207>
 38d:	4c 89 f7             	mov    %r14,%rdi
 390:	e8 00 00 00 00       	callq  395 <fan_rpm_store+0x1e5>
 395:	48 8b 44 24 70       	mov    0x70(%rsp),%rax
 39a:	65 48 33 04 25 28 00 	xor    %gs:0x28,%rax
 3a1:	00 00 
 3a3:	75 3b                	jne    3e0 <fan_rpm_store+0x230>
 3a5:	48 83 c4 78          	add    $0x78,%rsp
 3a9:	4c 89 e8             	mov    %r13,%rax
 3ac:	5b                   	pop    %rbx
 3ad:	5d                   	pop    %rbp
 3ae:	41 5c                	pop    %r12
 3b0:	41 5d                	pop    %r13
 3b2:	41 5e                	pop    %r14
 3b4:	41 5f                	pop    %r15
 3b6:	c3                   	retq   
 3b7:	44 88 7c 24 20       	mov    %r15b,0x20(%rsp)
 3bc:	31 c9                	xor    %ecx,%ecx
 3be:	31 d2                	xor    %edx,%edx
 3c0:	48 89 ee             	mov    %rbp,%rsi
 3c3:	c7 44 24 1b 03 0d 01 	movl   $0x10d03,0x1b(%rsp)
 3ca:	00 
 3cb:	c6 44 24 1f 02       	movb   $0x2,0x1f(%rsp)
 3d0:	c6 44 24 21 00       	movb   $0x0,0x21(%rsp)
 3d5:	48 8b 7b 08          	mov    0x8(%rbx),%rdi
 3d9:	e8 00 00 00 00       	callq  3de <fan_rpm_store+0x22e>
 3de:	eb ad                	jmp    38d <fan_rpm_store+0x1dd>
 3e0:	e8 00 00 00 00       	callq  3e5 <fan_rpm_store+0x235>
 3e5:	66 66 2e 0f 1f 84 00 	data16 nopw %cs:0x0(%rax,%rax,1)
 3ec:	00 00 00 00 

00000000000003f0 <razer_laptop_probe>:
 3f0:	e8 00 00 00 00       	callq  3f5 <razer_laptop_probe+0x5>
 3f5:	41 55                	push   %r13
 3f7:	ba 38 00 00 00       	mov    $0x38,%edx
 3fc:	be c0 0d 00 00       	mov    $0xdc0,%esi
 401:	41 54                	push   %r12
 403:	49 89 fc             	mov    %rdi,%r12
 406:	55                   	push   %rbp
 407:	53                   	push   %rbx
 408:	4c 8b af 10 19 00 00 	mov    0x1910(%rdi),%r13
 40f:	48 8b 3d 00 00 00 00 	mov    0x0(%rip),%rdi        # 416 <razer_laptop_probe+0x26>
 416:	49 8b 45 40          	mov    0x40(%r13),%rax
 41a:	48 8d 98 60 ff ff ff 	lea    -0xa0(%rax),%rbx
 421:	e8 00 00 00 00       	callq  426 <razer_laptop_probe+0x36>
 426:	48 85 c0             	test   %rax,%rax
 429:	74 50                	je     47b <razer_laptop_probe+0x8b>
 42b:	48 8d 78 10          	lea    0x10(%rax),%rdi
 42f:	48 c7 c2 00 00 00 00 	mov    $0x0,%rdx
 436:	48 c7 c6 00 00 00 00 	mov    $0x0,%rsi
 43d:	48 89 c5             	mov    %rax,%rbp
 440:	e8 00 00 00 00       	callq  445 <razer_laptop_probe+0x55>
 445:	41 8b 44 24 3c       	mov    0x3c(%r12),%eax
 44a:	48 89 5d 08          	mov    %rbx,0x8(%rbp)
 44e:	48 c7 45 30 00 00 00 	movq   $0x0,0x30(%rbp)
 455:	00 
 456:	89 45 00             	mov    %eax,0x0(%rbp)
 459:	49 8b 55 d8          	mov    -0x28(%r13),%rdx
 45d:	80 7a 07 01          	cmpb   $0x1,0x7(%rdx)
 461:	0f 84 00 00 00 00    	je     467 <razer_laptop_probe+0x77>
 467:	48 89 ef             	mov    %rbp,%rdi
 46a:	e8 00 00 00 00       	callq  46f <razer_laptop_probe+0x7f>
 46f:	b8 ed ff ff ff       	mov    $0xffffffed,%eax
 474:	5b                   	pop    %rbx
 475:	5d                   	pop    %rbp
 476:	41 5c                	pop    %r12
 478:	41 5d                	pop    %r13
 47a:	c3                   	retq   
 47b:	b8 f4 ff ff ff       	mov    $0xfffffff4,%eax
 480:	eb f2                	jmp    474 <razer_laptop_probe+0x84>
 482:	66 66 2e 0f 1f 84 00 	data16 nopw %cs:0x0(%rax,%rax,1)
 489:	00 00 00 00 
 48d:	0f 1f 00             	nopl   (%rax)

0000000000000490 <power_mode_show>:
 490:	e8 00 00 00 00       	callq  495 <power_mode_show+0x5>
 495:	48 8b 47 78          	mov    0x78(%rdi),%rax
 499:	8b 40 34             	mov    0x34(%rax),%eax
 49c:	85 c0                	test   %eax,%eax
 49e:	74 23                	je     4c3 <power_mode_show+0x33>
 4a0:	83 f8 01             	cmp    $0x1,%eax
 4a3:	74 41                	je     4e6 <power_mode_show+0x56>
 4a5:	48 b8 43 72 65 61 74 	movabs $0x20726f7461657243,%rax
 4ac:	6f 72 20 
 4af:	c7 42 08 28 32 29 0a 	movl   $0xa293228,0x8(%rdx)
 4b6:	48 89 02             	mov    %rax,(%rdx)
 4b9:	b8 0c 00 00 00       	mov    $0xc,%eax
 4be:	c6 42 0c 00          	movb   $0x0,0xc(%rdx)
 4c2:	c3                   	retq   
 4c3:	48 b8 42 61 6c 61 6e 	movabs $0x6465636e616c6142,%rax
 4ca:	63 65 64 
 4cd:	c7 42 08 20 28 30 29 	movl   $0x29302820,0x8(%rdx)
 4d4:	48 89 02             	mov    %rax,(%rdx)
 4d7:	b8 0a 00 00 00       	mov    $0xa,%eax
 4dc:	66 89 42 0c          	mov    %ax,0xc(%rdx)
 4e0:	b8 0d 00 00 00       	mov    $0xd,%eax
 4e5:	c3                   	retq   
 4e6:	48 b8 47 61 6d 69 6e 	movabs $0x2820676e696d6147,%rax
 4ed:	67 20 28 
 4f0:	c7 42 08 31 29 0a 00 	movl   $0xa2931,0x8(%rdx)
 4f7:	48 89 02             	mov    %rax,(%rdx)
 4fa:	b8 0b 00 00 00       	mov    $0xb,%eax
 4ff:	c3                   	retq   

0000000000000500 <fan_rpm_show>:
 500:	e8 00 00 00 00       	callq  505 <fan_rpm_show+0x5>
 505:	49 89 f8             	mov    %rdi,%r8
 508:	48 89 d7             	mov    %rdx,%rdi
 50b:	49 8b 40 78          	mov    0x78(%r8),%rax
 50f:	8b 50 30             	mov    0x30(%rax),%edx
 512:	85 d2                	test   %edx,%edx
 514:	74 0f                	je     525 <fan_rpm_show+0x25>
 516:	48 c7 c6 00 00 00 00 	mov    $0x0,%rsi
 51d:	e8 00 00 00 00       	callq  522 <fan_rpm_show+0x22>
 522:	48 98                	cltq   
 524:	c3                   	retq   
 525:	48 b8 41 75 74 6f 6d 	movabs $0x6974616d6f747541,%rax
 52c:	61 74 69 
 52f:	c7 47 08 63 20 28 30 	movl   $0x30282063,0x8(%rdi)
 536:	48 89 07             	mov    %rax,(%rdi)
 539:	b8 29 0a 00 00       	mov    $0xa29,%eax
 53e:	66 89 47 0c          	mov    %ax,0xc(%rdi)
 542:	b8 0e 00 00 00       	mov    $0xe,%eax
 547:	c6 47 0e 00          	movb   $0x0,0xe(%rdi)
 54b:	c3                   	retq   
 54c:	0f 1f 40 00          	nopl   0x0(%rax)

0000000000000550 <breath_mode_store>:
 550:	e8 00 00 00 00       	callq  555 <breath_mode_store+0x5>
 555:	48 89 c8             	mov    %rcx,%rax
 558:	c3                   	retq   
 559:	0f 1f 80 00 00 00 00 	nopl   0x0(%rax)

0000000000000560 <static_mode_store>:
 560:	e8 00 00 00 00       	callq  565 <static_mode_store+0x5>
 565:	48 89 c8             	mov    %rcx,%rax
 568:	c3                   	retq   
 569:	0f 1f 80 00 00 00 00 	nopl   0x0(%rax)

0000000000000570 <reactive_mode_store>:
 570:	e8 00 00 00 00       	callq  575 <reactive_mode_store+0x5>
 575:	48 89 c8             	mov    %rcx,%rax
 578:	c3                   	retq   
 579:	0f 1f 80 00 00 00 00 	nopl   0x0(%rax)

0000000000000580 <get_max_fan_rpm>:
 580:	e8 00 00 00 00       	callq  585 <get_max_fan_rpm+0x5>
 585:	8d 8f d3 fd ff ff    	lea    -0x22d(%rdi),%ecx
 58b:	83 f9 0c             	cmp    $0xc,%ecx
 58e:	77 1e                	ja     5ae <get_max_fan_rpm+0x2e>
 590:	b8 01 00 00 00       	mov    $0x1,%eax
 595:	48 d3 e0             	shl    %cl,%rax
 598:	25 21 10 00 00       	and    $0x1021,%eax
 59d:	48 83 f8 01          	cmp    $0x1,%rax
 5a1:	19 c0                	sbb    %eax,%eax
 5a3:	25 d4 fe ff ff       	and    $0xfffffed4,%eax
 5a8:	05 b4 14 00 00       	add    $0x14b4,%eax
 5ad:	c3                   	retq   
 5ae:	b8 88 13 00 00       	mov    $0x1388,%eax
 5b3:	c3                   	retq   
 5b4:	66 66 2e 0f 1f 84 00 	data16 nopw %cs:0x0(%rax,%rax,1)
 5bb:	00 00 00 00 
 5bf:	90                   	nop

00000000000005c0 <clampFanRPM>:
 5c0:	e8 00 00 00 00       	callq  5c5 <clampFanRPM+0x5>
 5c5:	8d 8e d3 fd ff ff    	lea    -0x22d(%rsi),%ecx
 5cb:	83 f9 0c             	cmp    $0xc,%ecx
 5ce:	77 41                	ja     611 <clampFanRPM+0x51>
 5d0:	ba 01 00 00 00       	mov    $0x1,%edx
 5d5:	48 d3 e2             	shl    %cl,%rdx
 5d8:	81 e2 21 10 00 00    	and    $0x1021,%edx
 5de:	48 83 fa 01          	cmp    $0x1,%rdx
 5e2:	19 c9                	sbb    %ecx,%ecx
 5e4:	81 e1 d4 fe ff ff    	and    $0xfffffed4,%ecx
 5ea:	81 c1 b4 14 00 00    	add    $0x14b4,%ecx
 5f0:	89 c8                	mov    %ecx,%eax
 5f2:	39 cf                	cmp    %ecx,%edi
 5f4:	77 0f                	ja     605 <clampFanRPM+0x45>
 5f6:	b8 23 00 00 00       	mov    $0x23,%eax
 5fb:	81 ff ab 0d 00 00    	cmp    $0xdab,%edi
 601:	76 0d                	jbe    610 <clampFanRPM+0x50>
 603:	89 f8                	mov    %edi,%eax
 605:	48 69 c0 1f 85 eb 51 	imul   $0x51eb851f,%rax,%rax
 60c:	48 c1 e8 25          	shr    $0x25,%rax
 610:	c3                   	retq   
 611:	b9 88 13 00 00       	mov    $0x1388,%ecx
 616:	b8 88 13 00 00       	mov    $0x1388,%eax
 61b:	eb d5                	jmp    5f2 <clampFanRPM+0x32>
 61d:	0f 1f 00             	nopl   (%rax)

0000000000000620 <creatorModeAllowed>:
 620:	e8 00 00 00 00       	callq  625 <creatorModeAllowed+0x5>
 625:	b8 01 00 00 00       	mov    $0x1,%eax
 62a:	81 ff 3a 02 00 00    	cmp    $0x23a,%edi
 630:	74 0b                	je     63d <creatorModeAllowed+0x1d>
 632:	31 c0                	xor    %eax,%eax
 634:	81 ff 45 02 00 00    	cmp    $0x245,%edi
 63a:	0f 94 c0             	sete   %al
 63d:	c3                   	retq   
 63e:	66 90                	xchg   %ax,%ax

0000000000000640 <send_payload>:
 640:	e8 00 00 00 00       	callq  645 <send_payload+0x5>
 645:	41 56                	push   %r14
 647:	48 8d 46 02          	lea    0x2(%rsi),%rax
 64b:	41 55                	push   %r13
 64d:	49 89 cd             	mov    %rcx,%r13
 650:	41 54                	push   %r12
 652:	49 89 d4             	mov    %rdx,%r12
 655:	31 d2                	xor    %edx,%edx
 657:	55                   	push   %rbp
 658:	48 89 fd             	mov    %rdi,%rbp
 65b:	48 89 f7             	mov    %rsi,%rdi
 65e:	48 8d 76 58          	lea    0x58(%rsi),%rsi
 662:	0f be 08             	movsbl (%rax),%ecx
 665:	48 83 c0 01          	add    $0x1,%rax
 669:	31 ca                	xor    %ecx,%edx
 66b:	48 39 f0             	cmp    %rsi,%rax
 66e:	75 f2                	jne    662 <send_payload+0x22>
 670:	88 57 58             	mov    %dl,0x58(%rdi)
 673:	be 5a 00 00 00       	mov    $0x5a,%esi
 678:	ba c0 0c 00 00       	mov    $0xcc0,%edx
 67d:	e8 00 00 00 00       	callq  682 <send_payload+0x42>
 682:	8b 75 00             	mov    0x0(%rbp),%esi
 685:	b9 21 00 00 00       	mov    $0x21,%ecx
 68a:	48 89 ef             	mov    %rbp,%rdi
 68d:	68 88 13 00 00       	pushq  $0x1388
 692:	41 b9 02 00 00 00    	mov    $0x2,%r9d
 698:	ba 09 00 00 00       	mov    $0x9,%edx
 69d:	49 89 c6             	mov    %rax,%r14
 6a0:	6a 5a                	pushq  $0x5a
 6a2:	c1 e6 08             	shl    $0x8,%esi
 6a5:	41 b8 00 03 00 00    	mov    $0x300,%r8d
 6ab:	50                   	push   %rax
 6ac:	81 ce 00 00 00 80    	or     $0x80000000,%esi
 6b2:	e8 00 00 00 00       	callq  6b7 <send_payload+0x77>
 6b7:	4c 89 ee             	mov    %r13,%rsi
 6ba:	4c 89 e7             	mov    %r12,%rdi
 6bd:	e8 00 00 00 00       	callq  6c2 <send_payload+0x82>
 6c2:	4c 89 f7             	mov    %r14,%rdi
 6c5:	e8 00 00 00 00       	callq  6ca <send_payload+0x8a>
 6ca:	31 c0                	xor    %eax,%eax
 6cc:	48 83 c4 18          	add    $0x18,%rsp
 6d0:	5d                   	pop    %rbp
 6d1:	41 5c                	pop    %r12
 6d3:	41 5d                	pop    %r13
 6d5:	41 5e                	pop    %r14
 6d7:	c3                   	retq   
 6d8:	0f 1f 84 00 00 00 00 	nopl   0x0(%rax,%rax,1)
 6df:	00 

00000000000006e0 <crc>:
 6e0:	e8 00 00 00 00       	callq  6e5 <crc+0x5>
 6e5:	48 8d 47 02          	lea    0x2(%rdi),%rax
 6e9:	48 8d 77 58          	lea    0x58(%rdi),%rsi
 6ed:	31 d2                	xor    %edx,%edx
 6ef:	0f be 08             	movsbl (%rax),%ecx
 6f2:	48 83 c0 01          	add    $0x1,%rax
 6f6:	31 ca                	xor    %ecx,%edx
 6f8:	48 39 f0             	cmp    %rsi,%rax
 6fb:	75 f2                	jne    6ef <crc+0xf>
 6fd:	88 57 58             	mov    %dl,0x58(%rdi)
 700:	c3                   	retq   

Disassembly of section .text.unlikely:

0000000000000000 <wave_mode_store>:
   0:	e8 00 00 00 00       	callq  5 <wave_mode_store+0x5>
   5:	41 56                	push   %r14
   7:	48 c7 c6 00 00 00 00 	mov    $0x0,%rsi
   e:	41 55                	push   %r13
  10:	49 89 cd             	mov    %rcx,%r13
  13:	b9 5a 00 00 00       	mov    $0x5a,%ecx
  18:	41 54                	push   %r12
  1a:	49 89 fc             	mov    %rdi,%r12
  1d:	55                   	push   %rbp
  1e:	53                   	push   %rbx
  1f:	48 81 ec c0 00 00 00 	sub    $0xc0,%rsp
  26:	49 8b 5c 24 78       	mov    0x78(%r12),%rbx
  2b:	65 48 8b 04 25 28 00 	mov    %gs:0x28,%rax
  32:	00 00 
  34:	48 89 84 24 b8 00 00 	mov    %rax,0xb8(%rsp)
  3b:	00 
  3c:	31 c0                	xor    %eax,%eax
  3e:	48 8d 7c 24 04       	lea    0x4(%rsp),%rdi
  43:	4c 8d 73 10          	lea    0x10(%rbx),%r14
  47:	f3 aa                	rep stos %al,%es:(%rdi)
  49:	48 8d 7c 24 5e       	lea    0x5e(%rsp),%rdi
  4e:	b9 5a 00 00 00       	mov    $0x5a,%ecx
  53:	f3 aa                	rep stos %al,%es:(%rdi)
  55:	4c 89 e7             	mov    %r12,%rdi
  58:	e8 00 00 00 00       	callq  5d <wave_mode_store+0x5d>
  5d:	4c 89 f7             	mov    %r14,%rdi
  60:	e8 00 00 00 00       	callq  65 <wave_mode_store+0x65>
  65:	ba 5a 00 00 00       	mov    $0x5a,%edx
  6a:	31 ff                	xor    %edi,%edi
  6c:	48 8d 6c 24 04       	lea    0x4(%rsp),%rbp
  71:	89 ee                	mov    %ebp,%esi
  73:	e8 00 00 00 00       	callq  78 <wave_mode_store+0x78>
  78:	48 b8 00 1f 00 00 00 	movabs $0xb03340000001f00,%rax
  7f:	34 03 0b 
  82:	66 c7 44 24 0c ff 00 	movw   $0xff,0xc(%rsp)
  89:	48 8d 54 24 31       	lea    0x31(%rsp),%rdx
  8e:	c7 44 24 0f 0f 00 00 	movl   $0xf,0xf(%rsp)
  95:	00 
  96:	48 89 44 24 04       	mov    %rax,0x4(%rsp)
  9b:	48 89 e8             	mov    %rbp,%rax
  9e:	c6 40 0f 00          	movb   $0x0,0xf(%rax)
  a2:	48 83 c0 03          	add    $0x3,%rax
  a6:	c6 40 0d ff          	movb   $0xff,0xd(%rax)
  aa:	c6 40 0e 00          	movb   $0x0,0xe(%rax)
  ae:	48 39 d0             	cmp    %rdx,%rax
  b1:	75 eb                	jne    9e <wave_mode_store+0x9e>
  b3:	48 c7 c6 00 00 00 00 	mov    $0x0,%rsi
  ba:	4c 89 e7             	mov    %r12,%rdi
  bd:	e8 00 00 00 00       	callq  c2 <wave_mode_store+0xc2>
  c2:	48 8b 7b 08          	mov    0x8(%rbx),%rdi
  c6:	b9 e8 03 00 00       	mov    $0x3e8,%ecx
  cb:	48 89 ee             	mov    %rbp,%rsi
  ce:	ba e8 03 00 00       	mov    $0x3e8,%edx
  d3:	e8 00 00 00 00       	callq  d8 <wave_mode_store+0xd8>
  d8:	31 c0                	xor    %eax,%eax
  da:	b9 5a 00 00 00       	mov    $0x5a,%ecx
  df:	48 89 ef             	mov    %rbp,%rdi
  e2:	f3 aa                	rep stos %al,%es:(%rdi)
  e4:	ba e8 03 00 00       	mov    $0x3e8,%edx
  e9:	b9 e8 03 00 00       	mov    $0x3e8,%ecx
  ee:	66 c7 44 24 66 05 00 	movw   $0x5,0x66(%rsp)
  f5:	48 b8 00 1f 00 00 00 	movabs $0xa03020000001f00,%rax
  fc:	02 03 0a 
  ff:	48 8d 74 24 5e       	lea    0x5e(%rsp),%rsi
 104:	48 8b 7b 08          	mov    0x8(%rbx),%rdi
 108:	48 89 44 24 5e       	mov    %rax,0x5e(%rsp)
 10d:	e8 00 00 00 00       	callq  112 <wave_mode_store+0x112>
 112:	4c 89 f7             	mov    %r14,%rdi
 115:	e8 00 00 00 00       	callq  11a <wave_mode_store+0x11a>
 11a:	48 8b 84 24 b8 00 00 	mov    0xb8(%rsp),%rax
 121:	00 
 122:	65 48 33 04 25 28 00 	xor    %gs:0x28,%rax
 129:	00 00 
 12b:	74 05                	je     132 <wave_mode_store+0x132>
 12d:	e8 00 00 00 00       	callq  132 <wave_mode_store+0x132>
 132:	48 81 c4 c0 00 00 00 	add    $0xc0,%rsp
 139:	4c 89 e8             	mov    %r13,%rax
 13c:	5b                   	pop    %rbx
 13d:	5d                   	pop    %rbp
 13e:	41 5c                	pop    %r12
 140:	41 5d                	pop    %r13
 142:	41 5e                	pop    %r14
 144:	c3                   	retq   

0000000000000145 <power_mode_store.cold>:
 145:	48 c7 c6 00 00 00 00 	mov    $0x0,%rsi
 14c:	48 89 ef             	mov    %rbp,%rdi
 14f:	e8 00 00 00 00       	callq  154 <power_mode_store.cold+0xf>
 154:	48 c7 04 24 00 00 00 	movq   $0x0,(%rsp)
 15b:	00 
 15c:	48 c7 c2 00 00 00 00 	mov    $0x0,%rdx
 163:	48 c7 c6 00 00 00 00 	mov    $0x0,%rsi
 16a:	48 89 ef             	mov    %rbp,%rdi
 16d:	e8 00 00 00 00       	callq  172 <power_mode_store.cold+0x2d>
 172:	48 8b 04 24          	mov    (%rsp),%rax
 176:	4c 89 e7             	mov    %r12,%rdi
 179:	b9 5a 00 00 00       	mov    $0x5a,%ecx
 17e:	4c 89 e6             	mov    %r12,%rsi
 181:	49 89 dd             	mov    %rbx,%r13
 184:	41 89 46 34          	mov    %eax,0x34(%r14)
 188:	31 c0                	xor    %eax,%eax
 18a:	f3 aa                	rep stos %al,%es:(%rdi)
 18c:	c6 44 24 0f 1f       	movb   $0x1f,0xf(%rsp)
 191:	c6 44 24 15 02       	movb   $0x2,0x15(%rsp)
 196:	c6 44 24 17 01       	movb   $0x1,0x17(%rsp)
 19b:	41 8b 46 34          	mov    0x34(%r14),%eax
 19f:	66 c7 44 24 13 04 0d 	movw   $0xd04,0x13(%rsp)
 1a6:	88 44 24 18          	mov    %al,0x18(%rsp)
 1aa:	41 83 7e 30 00       	cmpl   $0x0,0x30(%r14)
 1af:	0f 95 44 24 19       	setne  0x19(%rsp)
 1b4:	49 8b 7e 08          	mov    0x8(%r14),%rdi
 1b8:	31 d2                	xor    %edx,%edx
 1ba:	e8 00 00 00 00       	callq  1bf <power_mode_store.cold+0x7a>
 1bf:	e9 00 00 00 00       	jmpq   1c4 <power_mode_store.cold+0x7f>
 1c4:	48 83 3c 24 01       	cmpq   $0x1,(%rsp)
 1c9:	75 18                	jne    1e3 <power_mode_store.cold+0x9e>
 1cb:	48 c7 c2 00 00 00 00 	mov    $0x0,%rdx
 1d2:	48 c7 c6 00 00 00 00 	mov    $0x0,%rsi
 1d9:	48 89 ef             	mov    %rbp,%rdi
 1dc:	e8 00 00 00 00       	callq  1e1 <power_mode_store.cold+0x9c>
 1e1:	eb 8f                	jmp    172 <power_mode_store.cold+0x2d>
 1e3:	48 c7 c2 00 00 00 00 	mov    $0x0,%rdx
 1ea:	48 c7 c6 00 00 00 00 	mov    $0x0,%rsi
 1f1:	48 89 ef             	mov    %rbp,%rdi
 1f4:	48 c7 04 24 01 00 00 	movq   $0x1,(%rsp)
 1fb:	00 
 1fc:	e8 00 00 00 00       	callq  201 <power_mode_store.cold+0xbc>
 201:	e9 6c ff ff ff       	jmpq   172 <power_mode_store.cold+0x2d>

0000000000000206 <fan_rpm_store.cold>:
 206:	48 c7 c6 00 00 00 00 	mov    $0x0,%rsi
 20d:	4c 89 e7             	mov    %r12,%rdi
 210:	45 31 ff             	xor    %r15d,%r15d
 213:	e8 00 00 00 00       	callq  218 <fan_rpm_store.cold+0x12>
 218:	c7 43 30 00 00 00 00 	movl   $0x0,0x30(%rbx)
 21f:	e9 00 00 00 00       	jmpq   224 <fan_rpm_store.cold+0x1e>
 224:	48 c7 c6 00 00 00 00 	mov    $0x0,%rsi
 22b:	4c 89 e7             	mov    %r12,%rdi
 22e:	e8 00 00 00 00       	callq  233 <fan_rpm_store.cold+0x2d>
 233:	e9 00 00 00 00       	jmpq   238 <razer_laptop_probe.cold>

0000000000000238 <razer_laptop_probe.cold>:
 238:	2d 0f 02 00 00       	sub    $0x20f,%eax
 23d:	83 f8 36             	cmp    $0x36,%eax
 240:	0f 86 bc 00 00 00    	jbe    302 <razer_laptop_probe.cold+0xca>
 246:	48 c7 c2 00 00 00 00 	mov    $0x0,%rdx
 24d:	4c 89 ef             	mov    %r13,%rdi
 250:	48 c7 c6 00 00 00 00 	mov    $0x0,%rsi
 257:	4d 8d ac 24 d0 18 00 	lea    0x18d0(%r12),%r13
 25e:	00 
 25f:	e8 00 00 00 00       	callq  264 <razer_laptop_probe.cold+0x2c>
 264:	48 c7 c6 00 00 00 00 	mov    $0x0,%rsi
 26b:	4c 89 ef             	mov    %r13,%rdi
 26e:	e8 00 00 00 00       	callq  273 <razer_laptop_probe.cold+0x3b>
 273:	48 c7 c6 00 00 00 00 	mov    $0x0,%rsi
 27a:	4c 89 ef             	mov    %r13,%rdi
 27d:	e8 00 00 00 00       	callq  282 <razer_laptop_probe.cold+0x4a>
 282:	48 c7 c6 00 00 00 00 	mov    $0x0,%rsi
 289:	4c 89 ef             	mov    %r13,%rdi
 28c:	e8 00 00 00 00       	callq  291 <razer_laptop_probe.cold+0x59>
 291:	48 c7 c6 00 00 00 00 	mov    $0x0,%rsi
 298:	4c 89 ef             	mov    %r13,%rdi
 29b:	e8 00 00 00 00       	callq  2a0 <razer_laptop_probe.cold+0x68>
 2a0:	48 c7 c6 00 00 00 00 	mov    $0x0,%rsi
 2a7:	4c 89 ef             	mov    %r13,%rdi
 2aa:	e8 00 00 00 00       	callq  2af <razer_laptop_probe.cold+0x77>
 2af:	48 c7 c6 00 00 00 00 	mov    $0x0,%rsi
 2b6:	4c 89 ef             	mov    %r13,%rdi
 2b9:	e8 00 00 00 00       	callq  2be <razer_laptop_probe.cold+0x86>
 2be:	4c 89 ef             	mov    %r13,%rdi
 2c1:	48 c7 c6 00 00 00 00 	mov    $0x0,%rsi
 2c8:	e8 00 00 00 00       	callq  2cd <razer_laptop_probe.cold+0x95>
 2cd:	49 89 ac 24 48 19 00 	mov    %rbp,0x1948(%r12)
 2d4:	00 
 2d5:	4c 89 e7             	mov    %r12,%rdi
 2d8:	e8 00 00 00 00       	callq  2dd <razer_laptop_probe.cold+0xa5>
 2dd:	85 c0                	test   %eax,%eax
 2df:	74 2e                	je     30f <razer_laptop_probe.cold+0xd7>
 2e1:	48 c7 c6 00 00 00 00 	mov    $0x0,%rsi
 2e8:	4c 89 ef             	mov    %r13,%rdi
 2eb:	e8 00 00 00 00       	callq  2f0 <razer_laptop_probe.cold+0xb8>
 2f0:	48 89 ef             	mov    %rbp,%rdi
 2f3:	e8 00 00 00 00       	callq  2f8 <razer_laptop_probe.cold+0xc0>
 2f8:	b8 ed ff ff ff       	mov    $0xffffffed,%eax
 2fd:	e9 00 00 00 00       	jmpq   302 <razer_laptop_probe.cold+0xca>
 302:	48 8b 14 c5 00 00 00 	mov    0x0(,%rax,8),%rdx
 309:	00 
 30a:	e9 3e ff ff ff       	jmpq   24d <razer_laptop_probe.cold+0x15>
 30f:	be 2d 00 00 00       	mov    $0x2d,%esi
 314:	4c 89 e7             	mov    %r12,%rdi
 317:	e8 00 00 00 00       	callq  31c <razer_laptop_probe.cold+0xe4>
 31c:	85 c0                	test   %eax,%eax
 31e:	0f 84 00 00 00 00    	je     324 <razer_laptop_probe.cold+0xec>
 324:	48 c7 c6 00 00 00 00 	mov    $0x0,%rsi
 32b:	4c 89 ef             	mov    %r13,%rdi
 32e:	e8 00 00 00 00       	callq  333 <razer_laptop_probe.cold+0xfb>
 333:	48 89 ef             	mov    %rbp,%rdi
 336:	e8 00 00 00 00       	callq  33b <razer_laptop_probe.cold+0x103>
 33b:	b8 ed ff ff ff       	mov    $0xffffffed,%eax
 340:	e9 00 00 00 00       	jmpq   345 <__UNIQUE_ID_vermagic20+0x99>

Disassembly of section .init.text:

0000000000000000 <init_module>:
   0:	e8 00 00 00 00       	callq  5 <init_module+0x5>
   5:	48 c7 c2 00 00 00 00 	mov    $0x0,%rdx
   c:	48 c7 c6 00 00 00 00 	mov    $0x0,%rsi
  13:	48 c7 c7 00 00 00 00 	mov    $0x0,%rdi
  1a:	e9 00 00 00 00       	jmpq   1f <__UNIQUE_ID_description34+0x5>

Disassembly of section .exit.text:

0000000000000000 <cleanup_module>:
   0:	48 c7 c7 00 00 00 00 	mov    $0x0,%rdi
   7:	e9 00 00 00 00       	jmpq   c <cleanup_module+0xc>
